bomb:     file format elf64-x86-64


Disassembly of section .init:

0000000000000f30 <_init>:
 f30:	48 83 ec 08          	sub    $0x8,%rsp
 f34:	48 8b 05 ad 30 20 00 	mov    0x2030ad(%rip),%rax        # 203fe8 <__gmon_start__>
 f3b:	48 85 c0             	test   %rax,%rax
 f3e:	74 02                	je     f42 <_init+0x12>
 f40:	ff d0                	callq  *%rax
 f42:	48 83 c4 08          	add    $0x8,%rsp
 f46:	c3                   	retq   

Disassembly of section .plt:

0000000000000f50 <.plt>:
     f50:	ff 35 92 2f 20 00    	pushq  0x202f92(%rip)        # 203ee8 <_GLOBAL_OFFSET_TABLE_+0x8>
     f56:	ff 25 94 2f 20 00    	jmpq   *0x202f94(%rip)        # 203ef0 <_GLOBAL_OFFSET_TABLE_+0x10>
     f5c:	0f 1f 40 00          	nopl   0x0(%rax)

0000000000000f60 <getenv@plt>:
     f60:	ff 25 92 2f 20 00    	jmpq   *0x202f92(%rip)        # 203ef8 <getenv@GLIBC_2.2.5>
     f66:	68 00 00 00 00       	pushq  $0x0
     f6b:	e9 e0 ff ff ff       	jmpq   f50 <.plt>

0000000000000f70 <strcasecmp@plt>:
     f70:	ff 25 8a 2f 20 00    	jmpq   *0x202f8a(%rip)        # 203f00 <strcasecmp@GLIBC_2.2.5>
     f76:	68 01 00 00 00       	pushq  $0x1
     f7b:	e9 d0 ff ff ff       	jmpq   f50 <.plt>

0000000000000f80 <__errno_location@plt>:
     f80:	ff 25 82 2f 20 00    	jmpq   *0x202f82(%rip)        # 203f08 <__errno_location@GLIBC_2.2.5>
     f86:	68 02 00 00 00       	pushq  $0x2
     f8b:	e9 c0 ff ff ff       	jmpq   f50 <.plt>

0000000000000f90 <strcpy@plt>:
     f90:	ff 25 7a 2f 20 00    	jmpq   *0x202f7a(%rip)        # 203f10 <strcpy@GLIBC_2.2.5>
     f96:	68 03 00 00 00       	pushq  $0x3
     f9b:	e9 b0 ff ff ff       	jmpq   f50 <.plt>

0000000000000fa0 <puts@plt>:
     fa0:	ff 25 72 2f 20 00    	jmpq   *0x202f72(%rip)        # 203f18 <puts@GLIBC_2.2.5>
     fa6:	68 04 00 00 00       	pushq  $0x4
     fab:	e9 a0 ff ff ff       	jmpq   f50 <.plt>

0000000000000fb0 <write@plt>:
     fb0:	ff 25 6a 2f 20 00    	jmpq   *0x202f6a(%rip)        # 203f20 <write@GLIBC_2.2.5>
     fb6:	68 05 00 00 00       	pushq  $0x5
     fbb:	e9 90 ff ff ff       	jmpq   f50 <.plt>

0000000000000fc0 <__stack_chk_fail@plt>:
     fc0:	ff 25 62 2f 20 00    	jmpq   *0x202f62(%rip)        # 203f28 <__stack_chk_fail@GLIBC_2.4>
     fc6:	68 06 00 00 00       	pushq  $0x6
     fcb:	e9 80 ff ff ff       	jmpq   f50 <.plt>

0000000000000fd0 <alarm@plt>:
     fd0:	ff 25 5a 2f 20 00    	jmpq   *0x202f5a(%rip)        # 203f30 <alarm@GLIBC_2.2.5>
     fd6:	68 07 00 00 00       	pushq  $0x7
     fdb:	e9 70 ff ff ff       	jmpq   f50 <.plt>

0000000000000fe0 <close@plt>:
     fe0:	ff 25 52 2f 20 00    	jmpq   *0x202f52(%rip)        # 203f38 <close@GLIBC_2.2.5>
     fe6:	68 08 00 00 00       	pushq  $0x8
     feb:	e9 60 ff ff ff       	jmpq   f50 <.plt>

0000000000000ff0 <read@plt>:
     ff0:	ff 25 4a 2f 20 00    	jmpq   *0x202f4a(%rip)        # 203f40 <read@GLIBC_2.2.5>
     ff6:	68 09 00 00 00       	pushq  $0x9
     ffb:	e9 50 ff ff ff       	jmpq   f50 <.plt>

0000000000001000 <fgets@plt>:
    1000:	ff 25 42 2f 20 00    	jmpq   *0x202f42(%rip)        # 203f48 <fgets@GLIBC_2.2.5>
    1006:	68 0a 00 00 00       	pushq  $0xa
    100b:	e9 40 ff ff ff       	jmpq   f50 <.plt>

0000000000001010 <signal@plt>:
    1010:	ff 25 3a 2f 20 00    	jmpq   *0x202f3a(%rip)        # 203f50 <signal@GLIBC_2.2.5>
    1016:	68 0b 00 00 00       	pushq  $0xb
    101b:	e9 30 ff ff ff       	jmpq   f50 <.plt>

0000000000001020 <gethostbyname@plt>:
    1020:	ff 25 32 2f 20 00    	jmpq   *0x202f32(%rip)        # 203f58 <gethostbyname@GLIBC_2.2.5>
    1026:	68 0c 00 00 00       	pushq  $0xc
    102b:	e9 20 ff ff ff       	jmpq   f50 <.plt>

0000000000001030 <__memmove_chk@plt>:
    1030:	ff 25 2a 2f 20 00    	jmpq   *0x202f2a(%rip)        # 203f60 <__memmove_chk@GLIBC_2.3.4>
    1036:	68 0d 00 00 00       	pushq  $0xd
    103b:	e9 10 ff ff ff       	jmpq   f50 <.plt>

0000000000001040 <strtol@plt>:
    1040:	ff 25 22 2f 20 00    	jmpq   *0x202f22(%rip)        # 203f68 <strtol@GLIBC_2.2.5>
    1046:	68 0e 00 00 00       	pushq  $0xe
    104b:	e9 00 ff ff ff       	jmpq   f50 <.plt>

0000000000001050 <memcpy@plt>:
    1050:	ff 25 1a 2f 20 00    	jmpq   *0x202f1a(%rip)        # 203f70 <memcpy@GLIBC_2.14>
    1056:	68 0f 00 00 00       	pushq  $0xf
    105b:	e9 f0 fe ff ff       	jmpq   f50 <.plt>

0000000000001060 <fflush@plt>:
    1060:	ff 25 12 2f 20 00    	jmpq   *0x202f12(%rip)        # 203f78 <fflush@GLIBC_2.2.5>
    1066:	68 10 00 00 00       	pushq  $0x10
    106b:	e9 e0 fe ff ff       	jmpq   f50 <.plt>

0000000000001070 <__isoc99_sscanf@plt>:
    1070:	ff 25 0a 2f 20 00    	jmpq   *0x202f0a(%rip)        # 203f80 <__isoc99_sscanf@GLIBC_2.7>
    1076:	68 11 00 00 00       	pushq  $0x11
    107b:	e9 d0 fe ff ff       	jmpq   f50 <.plt>

0000000000001080 <__printf_chk@plt>:
    1080:	ff 25 02 2f 20 00    	jmpq   *0x202f02(%rip)        # 203f88 <__printf_chk@GLIBC_2.3.4>
    1086:	68 12 00 00 00       	pushq  $0x12
    108b:	e9 c0 fe ff ff       	jmpq   f50 <.plt>

0000000000001090 <fopen@plt>:
    1090:	ff 25 fa 2e 20 00    	jmpq   *0x202efa(%rip)        # 203f90 <fopen@GLIBC_2.2.5>
    1096:	68 13 00 00 00       	pushq  $0x13
    109b:	e9 b0 fe ff ff       	jmpq   f50 <.plt>

00000000000010a0 <gethostname@plt>:
    10a0:	ff 25 f2 2e 20 00    	jmpq   *0x202ef2(%rip)        # 203f98 <gethostname@GLIBC_2.2.5>
    10a6:	68 14 00 00 00       	pushq  $0x14
    10ab:	e9 a0 fe ff ff       	jmpq   f50 <.plt>

00000000000010b0 <exit@plt>:
    10b0:	ff 25 ea 2e 20 00    	jmpq   *0x202eea(%rip)        # 203fa0 <exit@GLIBC_2.2.5>
    10b6:	68 15 00 00 00       	pushq  $0x15
    10bb:	e9 90 fe ff ff       	jmpq   f50 <.plt>

00000000000010c0 <connect@plt>:
    10c0:	ff 25 e2 2e 20 00    	jmpq   *0x202ee2(%rip)        # 203fa8 <connect@GLIBC_2.2.5>
    10c6:	68 16 00 00 00       	pushq  $0x16
    10cb:	e9 80 fe ff ff       	jmpq   f50 <.plt>

00000000000010d0 <__fprintf_chk@plt>:
    10d0:	ff 25 da 2e 20 00    	jmpq   *0x202eda(%rip)        # 203fb0 <__fprintf_chk@GLIBC_2.3.4>
    10d6:	68 17 00 00 00       	pushq  $0x17
    10db:	e9 70 fe ff ff       	jmpq   f50 <.plt>

00000000000010e0 <sleep@plt>:
    10e0:	ff 25 d2 2e 20 00    	jmpq   *0x202ed2(%rip)        # 203fb8 <sleep@GLIBC_2.2.5>
    10e6:	68 18 00 00 00       	pushq  $0x18
    10eb:	e9 60 fe ff ff       	jmpq   f50 <.plt>

00000000000010f0 <__ctype_b_loc@plt>:
    10f0:	ff 25 ca 2e 20 00    	jmpq   *0x202eca(%rip)        # 203fc0 <__ctype_b_loc@GLIBC_2.3>
    10f6:	68 19 00 00 00       	pushq  $0x19
    10fb:	e9 50 fe ff ff       	jmpq   f50 <.plt>

0000000000001100 <__sprintf_chk@plt>:
    1100:	ff 25 c2 2e 20 00    	jmpq   *0x202ec2(%rip)        # 203fc8 <__sprintf_chk@GLIBC_2.3.4>
    1106:	68 1a 00 00 00       	pushq  $0x1a
    110b:	e9 40 fe ff ff       	jmpq   f50 <.plt>

0000000000001110 <socket@plt>:
    1110:	ff 25 ba 2e 20 00    	jmpq   *0x202eba(%rip)        # 203fd0 <socket@GLIBC_2.2.5>
    1116:	68 1b 00 00 00       	pushq  $0x1b
    111b:	e9 30 fe ff ff       	jmpq   f50 <.plt>

Disassembly of section .plt.got:

0000000000001120 <__cxa_finalize@plt>:
    1120:	ff 25 d2 2e 20 00    	jmpq   *0x202ed2(%rip)        # 203ff8 <__cxa_finalize@GLIBC_2.2.5>
    1126:	66 90                	xchg   %ax,%ax

Disassembly of section .text:

0000000000001130 <_start>:
    1130:	31 ed                	xor    %ebp,%ebp
    1132:	49 89 d1             	mov    %rdx,%r9
    1135:	5e                   	pop    %rsi
    1136:	48 89 e2             	mov    %rsp,%rdx
    1139:	48 83 e4 f0          	and    $0xfffffffffffffff0,%rsp
    113d:	50                   	push   %rax
    113e:	54                   	push   %rsp
    113f:	4c 8d 05 da 1a 00 00 	lea    0x1ada(%rip),%r8        # 2c20 <__libc_csu_fini>
    1146:	48 8d 0d 63 1a 00 00 	lea    0x1a63(%rip),%rcx        # 2bb0 <__libc_csu_init>
    114d:	48 8d 3d e6 00 00 00 	lea    0xe6(%rip),%rdi        # 123a <main>
    1154:	ff 15 86 2e 20 00    	callq  *0x202e86(%rip)        # 203fe0 <__libc_start_main@GLIBC_2.2.5>
    115a:	f4                   	hlt    
    115b:	0f 1f 44 00 00       	nopl   0x0(%rax,%rax,1)

0000000000001160 <deregister_tm_clones>:
    1160:	48 8d 3d 99 43 20 00 	lea    0x204399(%rip),%rdi        # 205500 <stdout@@GLIBC_2.2.5>
    1167:	55                   	push   %rbp
    1168:	48 8d 05 91 43 20 00 	lea    0x204391(%rip),%rax        # 205500 <stdout@@GLIBC_2.2.5>
    116f:	48 39 f8             	cmp    %rdi,%rax
    1172:	48 89 e5             	mov    %rsp,%rbp
    1175:	74 19                	je     1190 <deregister_tm_clones+0x30>
    1177:	48 8b 05 5a 2e 20 00 	mov    0x202e5a(%rip),%rax        # 203fd8 <_ITM_deregisterTMCloneTable>
    117e:	48 85 c0             	test   %rax,%rax
    1181:	74 0d                	je     1190 <deregister_tm_clones+0x30>
    1183:	5d                   	pop    %rbp
    1184:	ff e0                	jmpq   *%rax
    1186:	66 2e 0f 1f 84 00 00 	nopw   %cs:0x0(%rax,%rax,1)
    118d:	00 00 00 
    1190:	5d                   	pop    %rbp
    1191:	c3                   	retq   
    1192:	0f 1f 40 00          	nopl   0x0(%rax)
    1196:	66 2e 0f 1f 84 00 00 	nopw   %cs:0x0(%rax,%rax,1)
    119d:	00 00 00 

00000000000011a0 <register_tm_clones>:
    11a0:	48 8d 3d 59 43 20 00 	lea    0x204359(%rip),%rdi        # 205500 <stdout@@GLIBC_2.2.5>
    11a7:	48 8d 35 52 43 20 00 	lea    0x204352(%rip),%rsi        # 205500 <stdout@@GLIBC_2.2.5>
    11ae:	55                   	push   %rbp
    11af:	48 29 fe             	sub    %rdi,%rsi
    11b2:	48 89 e5             	mov    %rsp,%rbp
    11b5:	48 c1 fe 03          	sar    $0x3,%rsi
    11b9:	48 89 f0             	mov    %rsi,%rax
    11bc:	48 c1 e8 3f          	shr    $0x3f,%rax
    11c0:	48 01 c6             	add    %rax,%rsi
    11c3:	48 d1 fe             	sar    %rsi
    11c6:	74 18                	je     11e0 <register_tm_clones+0x40>
    11c8:	48 8b 05 21 2e 20 00 	mov    0x202e21(%rip),%rax        # 203ff0 <_ITM_registerTMCloneTable>
    11cf:	48 85 c0             	test   %rax,%rax
    11d2:	74 0c                	je     11e0 <register_tm_clones+0x40>
    11d4:	5d                   	pop    %rbp
    11d5:	ff e0                	jmpq   *%rax
    11d7:	66 0f 1f 84 00 00 00 	nopw   0x0(%rax,%rax,1)
    11de:	00 00 
    11e0:	5d                   	pop    %rbp
    11e1:	c3                   	retq   
    11e2:	0f 1f 40 00          	nopl   0x0(%rax)
    11e6:	66 2e 0f 1f 84 00 00 	nopw   %cs:0x0(%rax,%rax,1)
    11ed:	00 00 00 

00000000000011f0 <__do_global_dtors_aux>:
    11f0:	80 3d 31 43 20 00 00 	cmpb   $0x0,0x204331(%rip)        # 205528 <completed.7698>
    11f7:	75 2f                	jne    1228 <__do_global_dtors_aux+0x38>
    11f9:	48 83 3d f7 2d 20 00 	cmpq   $0x0,0x202df7(%rip)        # 203ff8 <__cxa_finalize@GLIBC_2.2.5>
    1200:	00 
    1201:	55                   	push   %rbp
    1202:	48 89 e5             	mov    %rsp,%rbp
    1205:	74 0c                	je     1213 <__do_global_dtors_aux+0x23>
    1207:	48 8b 3d fa 2d 20 00 	mov    0x202dfa(%rip),%rdi        # 204008 <__dso_handle>
    120e:	e8 0d ff ff ff       	callq  1120 <__cxa_finalize@plt>
    1213:	e8 48 ff ff ff       	callq  1160 <deregister_tm_clones>
    1218:	c6 05 09 43 20 00 01 	movb   $0x1,0x204309(%rip)        # 205528 <completed.7698>
    121f:	5d                   	pop    %rbp
    1220:	c3                   	retq   
    1221:	0f 1f 80 00 00 00 00 	nopl   0x0(%rax)
    1228:	f3 c3                	repz retq 
    122a:	66 0f 1f 44 00 00    	nopw   0x0(%rax,%rax,1)

0000000000001230 <frame_dummy>:
    1230:	55                   	push   %rbp
    1231:	48 89 e5             	mov    %rsp,%rbp
    1234:	5d                   	pop    %rbp
    1235:	e9 66 ff ff ff       	jmpq   11a0 <register_tm_clones>

000000000000123a <main>:
    123a:	53                   	push   %rbx
    123b:	48 83 ec 10          	sub    $0x10,%rsp
    123f:	64 48 8b 04 25 28 00 	mov    %fs:0x28,%rax
    1246:	00 00 
    1248:	48 89 44 24 08       	mov    %rax,0x8(%rsp)
    124d:	31 c0                	xor    %eax,%eax
    124f:	83 ff 01             	cmp    $0x1,%edi
    1252:	74 7a                	je     12ce <main+0x94>
    1254:	48 89 f3             	mov    %rsi,%rbx
    1257:	83 ff 02             	cmp    $0x2,%edi
    125a:	0f 85 a0 00 00 00    	jne    1300 <main+0xc6>
    1260:	48 8b 7e 08          	mov    0x8(%rsi),%rdi
    1264:	48 8d 35 a4 1f 00 00 	lea    0x1fa4(%rip),%rsi        # 320f <array.3417+0x3af>
    126b:	e8 20 fe ff ff       	callq  1090 <fopen@plt>
    1270:	48 89 05 b9 42 20 00 	mov    %rax,0x2042b9(%rip)        # 205530 <infile>
    1277:	48 85 c0             	test   %rax,%rax
    127a:	74 62                	je     12de <main+0xa4>
    127c:	c7 44 24 04 00 00 00 	movl   $0x0,0x4(%rsp)
    1283:	00 
    1284:	48 8d 7c 24 04       	lea    0x4(%rsp),%rdi
    1289:	e8 28 06 00 00       	callq  18b6 <initialize_bomb>
    128e:	83 7c 24 04 01       	cmpl   $0x1,0x4(%rsp)
    1293:	0f 84 8a 00 00 00    	je     1323 <main+0xe9>
    1299:	48 8d 35 28 1a 00 00 	lea    0x1a28(%rip),%rsi        # 2cc8 <_IO_stdin_used+0x88>
    12a0:	bf 01 00 00 00       	mov    $0x1,%edi
    12a5:	b8 00 00 00 00       	mov    $0x0,%eax
    12aa:	e8 d1 fd ff ff       	callq  1080 <__printf_chk@plt>
    12af:	b8 00 00 00 00       	mov    $0x0,%eax
    12b4:	48 8b 4c 24 08       	mov    0x8(%rsp),%rcx
    12b9:	64 48 33 0c 25 28 00 	xor    %fs:0x28,%rcx
    12c0:	00 00 
    12c2:	0f 85 20 01 00 00    	jne    13e8 <main+0x1ae>
    12c8:	48 83 c4 10          	add    $0x10,%rsp
    12cc:	5b                   	pop    %rbx
    12cd:	c3                   	retq   
    12ce:	48 8b 05 3b 42 20 00 	mov    0x20423b(%rip),%rax        # 205510 <stdin@@GLIBC_2.2.5>
    12d5:	48 89 05 54 42 20 00 	mov    %rax,0x204254(%rip)        # 205530 <infile>
    12dc:	eb 9e                	jmp    127c <main+0x42>
    12de:	48 8b 4b 08          	mov    0x8(%rbx),%rcx
    12e2:	48 8b 13             	mov    (%rbx),%rdx
    12e5:	48 8d 35 58 19 00 00 	lea    0x1958(%rip),%rsi        # 2c44 <_IO_stdin_used+0x4>
    12ec:	bf 01 00 00 00       	mov    $0x1,%edi
    12f1:	e8 8a fd ff ff       	callq  1080 <__printf_chk@plt>
    12f6:	bf 08 00 00 00       	mov    $0x8,%edi
    12fb:	e8 b0 fd ff ff       	callq  10b0 <exit@plt>
    1300:	48 8b 16             	mov    (%rsi),%rdx
    1303:	48 8d 35 57 19 00 00 	lea    0x1957(%rip),%rsi        # 2c61 <_IO_stdin_used+0x21>
    130a:	bf 01 00 00 00       	mov    $0x1,%edi
    130f:	b8 00 00 00 00       	mov    $0x0,%eax
    1314:	e8 67 fd ff ff       	callq  1080 <__printf_chk@plt>
    1319:	bf 08 00 00 00       	mov    $0x8,%edi
    131e:	e8 8d fd ff ff       	callq  10b0 <exit@plt>
    1323:	48 8d 3d de 19 00 00 	lea    0x19de(%rip),%rdi        # 2d08 <_IO_stdin_used+0xc8>
    132a:	e8 71 fc ff ff       	callq  fa0 <puts@plt>
    132f:	48 8d 3d 12 1a 00 00 	lea    0x1a12(%rip),%rdi        # 2d48 <_IO_stdin_used+0x108>
    1336:	e8 65 fc ff ff       	callq  fa0 <puts@plt>
    133b:	e8 07 09 00 00       	callq  1c47 <read_line>
    1340:	48 89 c7             	mov    %rax,%rdi
    1343:	e8 a5 00 00 00       	callq  13ed <phase_1>
    1348:	e8 41 0a 00 00       	callq  1d8e <phase_defused>
    134d:	48 8d 3d 24 1a 00 00 	lea    0x1a24(%rip),%rdi        # 2d78 <_IO_stdin_used+0x138>
    1354:	e8 47 fc ff ff       	callq  fa0 <puts@plt>
    1359:	e8 e9 08 00 00       	callq  1c47 <read_line>
    135e:	48 89 c7             	mov    %rax,%rdi
    1361:	e8 a7 00 00 00       	callq  140d <phase_2>
    1366:	e8 23 0a 00 00       	callq  1d8e <phase_defused>
    136b:	48 8d 3d 09 19 00 00 	lea    0x1909(%rip),%rdi        # 2c7b <_IO_stdin_used+0x3b>
    1372:	e8 29 fc ff ff       	callq  fa0 <puts@plt>
    1377:	e8 cb 08 00 00       	callq  1c47 <read_line>
    137c:	48 89 c7             	mov    %rax,%rdi
    137f:	e8 06 01 00 00       	callq  148a <phase_3>
    1384:	e8 05 0a 00 00       	callq  1d8e <phase_defused>
    1389:	48 8d 3d 09 19 00 00 	lea    0x1909(%rip),%rdi        # 2c99 <_IO_stdin_used+0x59>
    1390:	e8 0b fc ff ff       	callq  fa0 <puts@plt>
    1395:	e8 ad 08 00 00       	callq  1c47 <read_line>
    139a:	48 89 c7             	mov    %rax,%rdi
    139d:	e8 d4 01 00 00       	callq  1576 <phase_4>
    13a2:	e8 e7 09 00 00       	callq  1d8e <phase_defused>
    13a7:	48 8d 3d fa 19 00 00 	lea    0x19fa(%rip),%rdi        # 2da8 <_IO_stdin_used+0x168>
    13ae:	e8 ed fb ff ff       	callq  fa0 <puts@plt>
    13b3:	e8 8f 08 00 00       	callq  1c47 <read_line>
    13b8:	48 89 c7             	mov    %rax,%rdi
    13bb:	e8 27 02 00 00       	callq  15e7 <phase_5>
    13c0:	e8 c9 09 00 00       	callq  1d8e <phase_defused>
    13c5:	48 8d 3d dc 18 00 00 	lea    0x18dc(%rip),%rdi        # 2ca8 <_IO_stdin_used+0x68>
    13cc:	e8 cf fb ff ff       	callq  fa0 <puts@plt>
    13d1:	e8 71 08 00 00       	callq  1c47 <read_line>
    13d6:	48 89 c7             	mov    %rax,%rdi
    13d9:	e8 52 02 00 00       	callq  1630 <phase_6>
    13de:	e8 ab 09 00 00       	callq  1d8e <phase_defused>
    13e3:	e9 c7 fe ff ff       	jmpq   12af <main+0x75>
    13e8:	e8 d3 fb ff ff       	callq  fc0 <__stack_chk_fail@plt>

00000000000013ed <phase_1>:
    13ed:	48 83 ec 08          	sub    $0x8,%rsp
    13f1:	48 8d 35 d8 19 00 00 	lea    0x19d8(%rip),%rsi        # 2dd0 <_IO_stdin_used+0x190>
    13f8:	e8 6c 04 00 00       	callq  1869 <strings_not_equal>
    13fd:	85 c0                	test   %eax,%eax
    13ff:	75 05                	jne    1406 <phase_1+0x19>
    1401:	48 83 c4 08          	add    $0x8,%rsp
    1405:	c3                   	retq   
    1406:	e8 7b 07 00 00       	callq  1b86 <explode_bomb>
    140b:	eb f4                	jmp    1401 <phase_1+0x14>

000000000000140d <phase_2>:
    140d:	53                   	push   %rbx
    140e:	48 83 ec 20          	sub    $0x20,%rsp
    1412:	64 48 8b 04 25 28 00 	mov    %fs:0x28,%rax
    1419:	00 00 
    141b:	48 89 44 24 18       	mov    %rax,0x18(%rsp)
    1420:	31 c0                	xor    %eax,%eax
    1422:	48 89 e6             	mov    %rsp,%rsi
    1425:	e8 dc 07 00 00       	callq  1c06 <read_six_numbers>
    142a:	83 3c 24 00          	cmpl   $0x0,(%rsp)
    142e:	75 07                	jne    1437 <phase_2+0x2a>
    1430:	83 7c 24 04 01       	cmpl   $0x1,0x4(%rsp)
    1435:	74 05                	je     143c <phase_2+0x2f>
    1437:	e8 4a 07 00 00       	callq  1b86 <explode_bomb>
    143c:	bb 02 00 00 00       	mov    $0x2,%ebx
    1441:	eb 03                	jmp    1446 <phase_2+0x39>
    1443:	83 c3 01             	add    $0x1,%ebx
    1446:	83 fb 05             	cmp    $0x5,%ebx
    1449:	7f 24                	jg     146f <phase_2+0x62>
    144b:	48 63 c3             	movslq %ebx,%rax
    144e:	8d 53 fe             	lea    -0x2(%rbx),%edx
    1451:	48 63 d2             	movslq %edx,%rdx
    1454:	8b 0c 94             	mov    (%rsp,%rdx,4),%ecx
    1457:	8d 53 ff             	lea    -0x1(%rbx),%edx
    145a:	48 63 d2             	movslq %edx,%rdx
    145d:	8b 14 94             	mov    (%rsp,%rdx,4),%edx
    1460:	8d 14 4a             	lea    (%rdx,%rcx,2),%edx
    1463:	39 14 84             	cmp    %edx,(%rsp,%rax,4)
    1466:	74 db                	je     1443 <phase_2+0x36>
    1468:	e8 19 07 00 00       	callq  1b86 <explode_bomb>
    146d:	eb d4                	jmp    1443 <phase_2+0x36>
    146f:	48 8b 44 24 18       	mov    0x18(%rsp),%rax
    1474:	64 48 33 04 25 28 00 	xor    %fs:0x28,%rax
    147b:	00 00 
    147d:	75 06                	jne    1485 <phase_2+0x78>
    147f:	48 83 c4 20          	add    $0x20,%rsp
    1483:	5b                   	pop    %rbx
    1484:	c3                   	retq   
    1485:	e8 36 fb ff ff       	callq  fc0 <__stack_chk_fail@plt>

000000000000148a <phase_3>:
    148a:	48 83 ec 18          	sub    $0x18,%rsp
    148e:	64 48 8b 04 25 28 00 	mov    %fs:0x28,%rax
    1495:	00 00 
    1497:	48 89 44 24 08       	mov    %rax,0x8(%rsp)
    149c:	31 c0                	xor    %eax,%eax
    149e:	48 8d 4c 24 04       	lea    0x4(%rsp),%rcx
    14a3:	48 89 e2             	mov    %rsp,%rdx
    14a6:	48 8d 35 bb 1c 00 00 	lea    0x1cbb(%rip),%rsi        # 3168 <array.3417+0x308>/*%d %d*/
    14ad:	e8 be fb ff ff       	callq  1070 <__isoc99_sscanf@plt>
    14b2:	83 f8 01             	cmp    $0x1,%eax
    14b5:	7e 19                	jle    14d0 <phase_3+0x46>
    14b7:	83 3c 24 07          	cmpl   $0x7,(%rsp)
    14bb:	77 4b                	ja     1508 <phase_3+0x7e>
    14bd:	8b 04 24             	mov    (%rsp),%eax
    14c0:	48 8d 15 79 19 00 00 	lea    0x1979(%rip),%rdx        # 2e40 <_IO_stdin_used+0x200>
    14c7:	48 63 04 82          	movslq (%rdx,%rax,4),%rax
    14cb:	48 01 d0             	add    %rdx,%rax
    14ce:	ff e0                	jmpq   *%rax
    14d0:	e8 b1 06 00 00       	callq  1b86 <explode_bomb>
    14d5:	eb e0                	jmp    14b7 <phase_3+0x2d>
    14d7:	b8 7e 00 00 00       	mov    $0x7e,%eax
    14dc:	eb 3b                	jmp    1519 <phase_3+0x8f>
    14de:	b8 88 00 00 00       	mov    $0x88,%eax
    14e3:	eb 34                	jmp    1519 <phase_3+0x8f>
    14e5:	b8 a5 00 00 00       	mov    $0xa5,%eax
    14ea:	eb 2d                	jmp    1519 <phase_3+0x8f>
    14ec:	b8 a1 00 00 00       	mov    $0xa1,%eax
    14f1:	eb 26                	jmp    1519 <phase_3+0x8f>
    14f3:	b8 cf 03 00 00       	mov    $0x3cf,%eax
    14f8:	eb 1f                	jmp    1519 <phase_3+0x8f>
    14fa:	b8 8c 03 00 00       	mov    $0x38c,%eax
    14ff:	eb 18                	jmp    1519 <phase_3+0x8f>
    1501:	b8 46 01 00 00       	mov    $0x146,%eax
    1506:	eb 11                	jmp    1519 <phase_3+0x8f>
    1508:	e8 79 06 00 00       	callq  1b86 <explode_bomb>
    150d:	b8 00 00 00 00       	mov    $0x0,%eax
    1512:	eb 05                	jmp    1519 <phase_3+0x8f>
    1514:	b8 a9 00 00 00       	mov    $0xa9,%eax
    1519:	39 44 24 04          	cmp    %eax,0x4(%rsp)
    151d:	74 05                	je     1524 <phase_3+0x9a>
    151f:	e8 62 06 00 00       	callq  1b86 <explode_bomb>
    1524:	48 8b 44 24 08       	mov    0x8(%rsp),%rax
    1529:	64 48 33 04 25 28 00 	xor    %fs:0x28,%rax
    1530:	00 00 
    1532:	75 05                	jne    1539 <phase_3+0xaf>
    1534:	48 83 c4 18          	add    $0x18,%rsp
    1538:	c3                   	retq   
    1539:	e8 82 fa ff ff       	callq  fc0 <__stack_chk_fail@plt>

000000000000153e <func4>:
    153e:	85 ff                	test   %edi,%edi
    1540:	7e 2e                	jle    1570 <func4+0x32>
    1542:	83 ff 01             	cmp    $0x1,%edi
    1545:	75 03                	jne    154a <func4+0xc>
    1547:	89 f0                	mov    %esi,%eax
    1549:	c3                   	retq   
    154a:	41 54                	push   %r12
    154c:	55                   	push   %rbp
    154d:	53                   	push   %rbx
    154e:	89 f3                	mov    %esi,%ebx
    1550:	89 fd                	mov    %edi,%ebp
    1552:	8d 7f ff             	lea    -0x1(%rdi),%edi
    1555:	e8 e4 ff ff ff       	callq  153e <func4>
    155a:	44 8d 24 18          	lea    (%rax,%rbx,1),%r12d
    155e:	8d 7d fe             	lea    -0x2(%rbp),%edi
    1561:	89 de                	mov    %ebx,%esi
    1563:	e8 d6 ff ff ff       	callq  153e <func4>
    1568:	44 01 e0             	add    %r12d,%eax
    156b:	5b                   	pop    %rbx
    156c:	5d                   	pop    %rbp
    156d:	41 5c                	pop    %r12
    156f:	c3                   	retq   
    1570:	b8 00 00 00 00       	mov    $0x0,%eax
    1575:	c3                   	retq   

0000000000001576 <phase_4>:
    1576:	48 83 ec 18          	sub    $0x18,%rsp
    157a:	64 48 8b 04 25 28 00 	mov    %fs:0x28,%rax
    1581:	00 00 
    1583:	48 89 44 24 08       	mov    %rax,0x8(%rsp)
    1588:	31 c0                	xor    %eax,%eax
    158a:	48 89 e1             	mov    %rsp,%rcx
    158d:	48 8d 54 24 04       	lea    0x4(%rsp),%rdx           /*pay attention! They changes locations!*/
    1592:	48 8d 35 cf 1b 00 00 	lea    0x1bcf(%rip),%rsi        # 3168 <array.3417+0x308>/*%d %d*/
    1599:	e8 d2 fa ff ff       	callq  1070 <__isoc99_sscanf@plt>
    159e:	83 f8 02             	cmp    $0x2,%eax
    15a1:	75 0d                	jne    15b0 <phase_4+0x3a>
    15a3:	8b 04 24             	mov    (%rsp),%eax
    15a6:	83 f8 01             	cmp    $0x1,%eax
    15a9:	7e 05                	jle    15b0 <phase_4+0x3a>
    15ab:	83 f8 04             	cmp    $0x4,%eax
    15ae:	7e 05                	jle    15b5 <phase_4+0x3f>
    15b0:	e8 d1 05 00 00       	callq  1b86 <explode_bomb>
    15b5:	8b 34 24             	mov    (%rsp),%esi
    15b8:	bf 06 00 00 00       	mov    $0x6,%edi
    15bd:	e8 7c ff ff ff       	callq  153e <func4>
    15c2:	39 44 24 04          	cmp    %eax,0x4(%rsp)
    15c6:	74 05                	je     15cd <phase_4+0x57>
    15c8:	e8 b9 05 00 00       	callq  1b86 <explode_bomb>
    15cd:	48 8b 44 24 08       	mov    0x8(%rsp),%rax
    15d2:	64 48 33 04 25 28 00 	xor    %fs:0x28,%rax
    15d9:	00 00 
    15db:	75 05                	jne    15e2 <phase_4+0x6c>
    15dd:	48 83 c4 18          	add    $0x18,%rsp
    15e1:	c3                   	retq   
    15e2:	e8 d9 f9 ff ff       	callq  fc0 <__stack_chk_fail@plt>

00000000000015e7 <phase_5>:
    15e7:	53                   	push   %rbx
    15e8:	48 89 fb             	mov    %rdi,%rbx
    15eb:	e8 64 02 00 00       	callq  1854 <string_length>
    15f0:	83 f8 06             	cmp    $0x6,%eax
    15f3:	75 0c                	jne    1601 <phase_5+0x1a>
    15f5:	b9 00 00 00 00       	mov    $0x0,%ecx
    15fa:	b8 00 00 00 00       	mov    $0x0,%eax
    15ff:	eb 1e                	jmp    161f <phase_5+0x38>
    1601:	e8 80 05 00 00       	callq  1b86 <explode_bomb>
    1606:	eb ed                	jmp    15f5 <phase_5+0xe>
    1608:	48 63 d0             	movslq %eax,%rdx
    160b:	0f b6 14 13          	movzbl (%rbx,%rdx,1),%edx
    160f:	83 e2 0f             	and    $0xf,%edx
    1612:	48 8d 35 47 18 00 00 	lea    0x1847(%rip),%rsi        # 2e60 <array.3417>
    1619:	03 0c 96             	add    (%rsi,%rdx,4),%ecx
    161c:	83 c0 01             	add    $0x1,%eax
    161f:	83 f8 05             	cmp    $0x5,%eax
    1622:	7e e4                	jle    1608 <phase_5+0x21>
    1624:	83 f9 37             	cmp    $0x37,%ecx
    1627:	74 05                	je     162e <phase_5+0x47>
    1629:	e8 58 05 00 00       	callq  1b86 <explode_bomb>
    162e:	5b                   	pop    %rbx
    162f:	c3                   	retq   

0000000000001630 <phase_6>:
    1630:	41 54                	push   %r12
    1632:	55                   	push   %rbp
    1633:	53                   	push   %rbx
    1634:	48 83 ec 60          	sub    $0x60,%rsp
    1638:	64 48 8b 04 25 28 00 	mov    %fs:0x28,%rax
    163f:	00 00 
    1641:	48 89 44 24 58       	mov    %rax,0x58(%rsp)
    1646:	31 c0                	xor    %eax,%eax
    1648:	48 89 e6             	mov    %rsp,%rsi
    164b:	e8 b6 05 00 00       	callq  1c06 <read_six_numbers>
    1650:	bd 00 00 00 00       	mov    $0x0,%ebp
    1655:	eb 27                	jmp    167e <phase_6+0x4e>
    1657:	e8 2a 05 00 00       	callq  1b86 <explode_bomb>
    165c:	eb 33                	jmp    1691 <phase_6+0x61>
    165e:	83 c3 01             	add    $0x1,%ebx
    1661:	83 fb 05             	cmp    $0x5,%ebx
    1664:	7f 15                	jg     167b <phase_6+0x4b>
    1666:	48 63 c5             	movslq %ebp,%rax
    1669:	48 63 d3             	movslq %ebx,%rdx
    166c:	8b 3c 94             	mov    (%rsp,%rdx,4),%edi
    166f:	39 3c 84             	cmp    %edi,(%rsp,%rax,4)
    1672:	75 ea                	jne    165e <phase_6+0x2e>
    1674:	e8 0d 05 00 00       	callq  1b86 <explode_bomb>
    1679:	eb e3                	jmp    165e <phase_6+0x2e>
    167b:	44 89 e5             	mov    %r12d,%ebp
    167e:	83 fd 05             	cmp    $0x5,%ebp
    1681:	7f 17                	jg     169a <phase_6+0x6a>
    1683:	48 63 c5             	movslq %ebp,%rax
    1686:	8b 04 84             	mov    (%rsp,%rax,4),%eax
    1689:	83 e8 01             	sub    $0x1,%eax
    168c:	83 f8 05             	cmp    $0x5,%eax
    168f:	77 c6                	ja     1657 <phase_6+0x27>
    1691:	44 8d 65 01          	lea    0x1(%rbp),%r12d
    1695:	44 89 e3             	mov    %r12d,%ebx
    1698:	eb c7                	jmp    1661 <phase_6+0x31>
    169a:	be 00 00 00 00       	mov    $0x0,%esi
    169f:	eb 17                	jmp    16b8 <phase_6+0x88>
    16a1:	48 8b 52 08          	mov    0x8(%rdx),%rdx
    16a5:	83 c0 01             	add    $0x1,%eax
    16a8:	48 63 ce             	movslq %esi,%rcx
    16ab:	39 04 8c             	cmp    %eax,(%rsp,%rcx,4)
    16ae:	7f f1                	jg     16a1 <phase_6+0x71>
    16b0:	48 89 54 cc 20       	mov    %rdx,0x20(%rsp,%rcx,8)
    16b5:	83 c6 01             	add    $0x1,%esi
    16b8:	83 fe 05             	cmp    $0x5,%esi
    16bb:	7f 0e                	jg     16cb <phase_6+0x9b>
    16bd:	b8 01 00 00 00       	mov    $0x1,%eax
    16c2:	48 8d 15 67 3b 20 00 	lea    0x203b67(%rip),%rdx        # 205230 <node1>
    16c9:	eb dd                	jmp    16a8 <phase_6+0x78>
    16cb:	48 8b 5c 24 20       	mov    0x20(%rsp),%rbx
    16d0:	48 89 d9             	mov    %rbx,%rcx
    16d3:	b8 01 00 00 00       	mov    $0x1,%eax
    16d8:	eb 12                	jmp    16ec <phase_6+0xbc>
    16da:	48 63 d0             	movslq %eax,%rdx
    16dd:	48 8b 54 d4 20       	mov    0x20(%rsp,%rdx,8),%rdx
    16e2:	48 89 51 08          	mov    %rdx,0x8(%rcx)
    16e6:	83 c0 01             	add    $0x1,%eax
    16e9:	48 89 d1             	mov    %rdx,%rcx
    16ec:	83 f8 05             	cmp    $0x5,%eax
    16ef:	7e e9                	jle    16da <phase_6+0xaa>
    16f1:	48 c7 41 08 00 00 00 	movq   $0x0,0x8(%rcx)
    16f8:	00 
    16f9:	bd 00 00 00 00       	mov    $0x0,%ebp
    16fe:	eb 07                	jmp    1707 <phase_6+0xd7>
    1700:	48 8b 5b 08          	mov    0x8(%rbx),%rbx
    1704:	83 c5 01             	add    $0x1,%ebp
    1707:	83 fd 04             	cmp    $0x4,%ebp
    170a:	7f 11                	jg     171d <phase_6+0xed>
    170c:	48 8b 43 08          	mov    0x8(%rbx),%rax
    1710:	8b 00                	mov    (%rax),%eax
    1712:	39 03                	cmp    %eax,(%rbx)
    1714:	7e ea                	jle    1700 <phase_6+0xd0>
    1716:	e8 6b 04 00 00       	callq  1b86 <explode_bomb>
    171b:	eb e3                	jmp    1700 <phase_6+0xd0>
    171d:	48 8b 44 24 58       	mov    0x58(%rsp),%rax
    1722:	64 48 33 04 25 28 00 	xor    %fs:0x28,%rax
    1729:	00 00 
    172b:	75 09                	jne    1736 <phase_6+0x106>
    172d:	48 83 c4 60          	add    $0x60,%rsp
    1731:	5b                   	pop    %rbx
    1732:	5d                   	pop    %rbp
    1733:	41 5c                	pop    %r12
    1735:	c3                   	retq   
    1736:	e8 85 f8 ff ff       	callq  fc0 <__stack_chk_fail@plt>

000000000000173b <fun7>:
    173b:	48 85 ff             	test   %rdi,%rdi
    173e:	74 34                	je     1774 <fun7+0x39>
    1740:	48 83 ec 08          	sub    $0x8,%rsp
    1744:	8b 07                	mov    (%rdi),%eax
    1746:	39 f0                	cmp    %esi,%eax
    1748:	7f 0e                	jg     1758 <fun7+0x1d>
    174a:	39 f0                	cmp    %esi,%eax
    174c:	75 17                	jne    1765 <fun7+0x2a>
    174e:	b8 00 00 00 00       	mov    $0x0,%eax
    1753:	48 83 c4 08          	add    $0x8,%rsp
    1757:	c3                   	retq   
    1758:	48 8b 7f 08          	mov    0x8(%rdi),%rdi
    175c:	e8 da ff ff ff       	callq  173b <fun7>
    1761:	01 c0                	add    %eax,%eax
    1763:	eb ee                	jmp    1753 <fun7+0x18>
    1765:	48 8b 7f 10          	mov    0x10(%rdi),%rdi
    1769:	e8 cd ff ff ff       	callq  173b <fun7>
    176e:	8d 44 00 01          	lea    0x1(%rax,%rax,1),%eax
    1772:	eb df                	jmp    1753 <fun7+0x18>
    1774:	b8 ff ff ff ff       	mov    $0xffffffff,%eax
    1779:	c3                   	retq   

000000000000177a <secret_phase>:
    177a:	53                   	push   %rbx
    177b:	e8 c7 04 00 00       	callq  1c47 <read_line>
    1780:	ba 0a 00 00 00       	mov    $0xa,%edx
    1785:	be 00 00 00 00       	mov    $0x0,%esi
    178a:	48 89 c7             	mov    %rax,%rdi
    178d:	e8 ae f8 ff ff       	callq  1040 <strtol@plt>
    1792:	48 89 c3             	mov    %rax,%rbx
    1795:	8d 40 ff             	lea    -0x1(%rax),%eax
    1798:	3d e8 03 00 00       	cmp    $0x3e8,%eax
    179d:	77 2b                	ja     17ca <secret_phase+0x50>
    179f:	89 de                	mov    %ebx,%esi
    17a1:	48 8d 3d a8 39 20 00 	lea    0x2039a8(%rip),%rdi        # 205150 <n1>
    17a8:	e8 8e ff ff ff       	callq  173b <fun7>
    17ad:	83 f8 05             	cmp    $0x5,%eax
    17b0:	74 05                	je     17b7 <secret_phase+0x3d>
    17b2:	e8 cf 03 00 00       	callq  1b86 <explode_bomb>
    17b7:	48 8d 3d 4a 16 00 00 	lea    0x164a(%rip),%rdi        # 2e08 <_IO_stdin_used+0x1c8>
    17be:	e8 dd f7 ff ff       	callq  fa0 <puts@plt>
    17c3:	e8 c6 05 00 00       	callq  1d8e <phase_defused>
    17c8:	5b                   	pop    %rbx
    17c9:	c3                   	retq   
    17ca:	e8 b7 03 00 00       	callq  1b86 <explode_bomb>
    17cf:	eb ce                	jmp    179f <secret_phase+0x25>

00000000000017d1 <sig_handler>:
    17d1:	48 83 ec 08          	sub    $0x8,%rsp
    17d5:	48 8d 3d c4 16 00 00 	lea    0x16c4(%rip),%rdi        # 2ea0 <array.3417+0x40>
    17dc:	e8 bf f7 ff ff       	callq  fa0 <puts@plt>
    17e1:	bf 03 00 00 00       	mov    $0x3,%edi
    17e6:	e8 f5 f8 ff ff       	callq  10e0 <sleep@plt>
    17eb:	48 8d 35 ef 18 00 00 	lea    0x18ef(%rip),%rsi        # 30e1 <array.3417+0x281>
    17f2:	bf 01 00 00 00       	mov    $0x1,%edi
    17f7:	b8 00 00 00 00       	mov    $0x0,%eax
    17fc:	e8 7f f8 ff ff       	callq  1080 <__printf_chk@plt>
    1801:	48 8b 3d f8 3c 20 00 	mov    0x203cf8(%rip),%rdi        # 205500 <stdout@@GLIBC_2.2.5>
    1808:	e8 53 f8 ff ff       	callq  1060 <fflush@plt>
    180d:	bf 01 00 00 00       	mov    $0x1,%edi
    1812:	e8 c9 f8 ff ff       	callq  10e0 <sleep@plt>
    1817:	48 8d 3d cb 18 00 00 	lea    0x18cb(%rip),%rdi        # 30e9 <array.3417+0x289>
    181e:	e8 7d f7 ff ff       	callq  fa0 <puts@plt>
    1823:	bf 10 00 00 00       	mov    $0x10,%edi
    1828:	e8 83 f8 ff ff       	callq  10b0 <exit@plt>

000000000000182d <invalid_phase>:
    182d:	48 83 ec 08          	sub    $0x8,%rsp
    1831:	48 89 fa             	mov    %rdi,%rdx
    1834:	48 8d 35 b6 18 00 00 	lea    0x18b6(%rip),%rsi        # 30f1 <array.3417+0x291>
    183b:	bf 01 00 00 00       	mov    $0x1,%edi
    1840:	b8 00 00 00 00       	mov    $0x0,%eax
    1845:	e8 36 f8 ff ff       	callq  1080 <__printf_chk@plt>
    184a:	bf 08 00 00 00       	mov    $0x8,%edi
    184f:	e8 5c f8 ff ff       	callq  10b0 <exit@plt>

0000000000001854 <string_length>:
    1854:	b8 00 00 00 00       	mov    $0x0,%eax
    1859:	eb 07                	jmp    1862 <string_length+0xe>
    185b:	48 83 c7 01          	add    $0x1,%rdi
    185f:	83 c0 01             	add    $0x1,%eax
    1862:	80 3f 00             	cmpb   $0x0,(%rdi)
    1865:	75 f4                	jne    185b <string_length+0x7>
    1867:	f3 c3                	repz retq 

0000000000001869 <strings_not_equal>:
    1869:	41 54                	push   %r12
    186b:	55                   	push   %rbp
    186c:	53                   	push   %rbx
    186d:	48 89 fb             	mov    %rdi,%rbx
    1870:	48 89 f5             	mov    %rsi,%rbp
    1873:	e8 dc ff ff ff       	callq  1854 <string_length>
    1878:	41 89 c4             	mov    %eax,%r12d
    187b:	48 89 ef             	mov    %rbp,%rdi
    187e:	e8 d1 ff ff ff       	callq  1854 <string_length>
    1883:	41 39 c4             	cmp    %eax,%r12d
    1886:	74 0a                	je     1892 <strings_not_equal+0x29>
    1888:	b8 01 00 00 00       	mov    $0x1,%eax
    188d:	5b                   	pop    %rbx
    188e:	5d                   	pop    %rbp
    188f:	41 5c                	pop    %r12
    1891:	c3                   	retq   
    1892:	0f b6 03             	movzbl (%rbx),%eax
    1895:	84 c0                	test   %al,%al
    1897:	74 0f                	je     18a8 <strings_not_equal+0x3f>
    1899:	38 45 00             	cmp    %al,0x0(%rbp)
    189c:	75 11                	jne    18af <strings_not_equal+0x46>
    189e:	48 83 c3 01          	add    $0x1,%rbx
    18a2:	48 83 c5 01          	add    $0x1,%rbp
    18a6:	eb ea                	jmp    1892 <strings_not_equal+0x29>
    18a8:	b8 00 00 00 00       	mov    $0x0,%eax
    18ad:	eb de                	jmp    188d <strings_not_equal+0x24>
    18af:	b8 01 00 00 00       	mov    $0x1,%eax
    18b4:	eb d7                	jmp    188d <strings_not_equal+0x24>

00000000000018b6 <initialize_bomb>:
    18b6:	41 54                	push   %r12
    18b8:	55                   	push   %rbp
    18b9:	53                   	push   %rbx
    18ba:	48 81 ec 50 20 00 00 	sub    $0x2050,%rsp
    18c1:	49 89 fc             	mov    %rdi,%r12
    18c4:	64 48 8b 04 25 28 00 	mov    %fs:0x28,%rax
    18cb:	00 00 
    18cd:	48 89 84 24 48 20 00 	mov    %rax,0x2048(%rsp)
    18d4:	00 
    18d5:	31 c0                	xor    %eax,%eax
    18d7:	48 8d 35 f3 fe ff ff 	lea    -0x10d(%rip),%rsi        # 17d1 <sig_handler>
    18de:	bf 02 00 00 00       	mov    $0x2,%edi
    18e3:	e8 28 f7 ff ff       	callq  1010 <signal@plt>
    18e8:	48 89 e7             	mov    %rsp,%rdi
    18eb:	be 40 00 00 00       	mov    $0x40,%esi
    18f0:	e8 ab f7 ff ff       	callq  10a0 <gethostname@plt>
    18f5:	85 c0                	test   %eax,%eax
    18f7:	75 28                	jne    1921 <initialize_bomb+0x6b>
    18f9:	89 c5                	mov    %eax,%ebp
    18fb:	89 c3                	mov    %eax,%ebx
    18fd:	48 63 c3             	movslq %ebx,%rax
    1900:	48 8d 15 79 39 20 00 	lea    0x203979(%rip),%rdx        # 205280 <host_table>
    1907:	48 8b 3c c2          	mov    (%rdx,%rax,8),%rdi
    190b:	48 85 ff             	test   %rdi,%rdi
    190e:	74 2c                	je     193c <initialize_bomb+0x86>
    1910:	48 89 e6             	mov    %rsp,%rsi
    1913:	e8 58 f6 ff ff       	callq  f70 <strcasecmp@plt>
    1918:	85 c0                	test   %eax,%eax
    191a:	74 1b                	je     1937 <initialize_bomb+0x81>
    191c:	83 c3 01             	add    $0x1,%ebx
    191f:	eb dc                	jmp    18fd <initialize_bomb+0x47>
    1921:	48 8d 3d b0 15 00 00 	lea    0x15b0(%rip),%rdi        # 2ed8 <array.3417+0x78>
    1928:	e8 73 f6 ff ff       	callq  fa0 <puts@plt>
    192d:	bf 08 00 00 00       	mov    $0x8,%edi
    1932:	e8 79 f7 ff ff       	callq  10b0 <exit@plt>
    1937:	bd 01 00 00 00       	mov    $0x1,%ebp
    193c:	85 ed                	test   %ebp,%ebp
    193e:	74 35                	je     1975 <initialize_bomb+0xbf>
    1940:	48 8d 7c 24 40       	lea    0x40(%rsp),%rdi
    1945:	e8 c3 0f 00 00       	callq  290d <init_driver>
    194a:	85 c0                	test   %eax,%eax
    194c:	78 3d                	js     198b <initialize_bomb+0xd5>
    194e:	41 c7 04 24 01 00 00 	movl   $0x1,(%r12)
    1955:	00 
    1956:	48 8b 84 24 48 20 00 	mov    0x2048(%rsp),%rax
    195d:	00 
    195e:	64 48 33 04 25 28 00 	xor    %fs:0x28,%rax
    1965:	00 00 
    1967:	75 47                	jne    19b0 <initialize_bomb+0xfa>
    1969:	48 81 c4 50 20 00 00 	add    $0x2050,%rsp
    1970:	5b                   	pop    %rbx
    1971:	5d                   	pop    %rbp
    1972:	41 5c                	pop    %r12
    1974:	c3                   	retq   
    1975:	48 8d 3d 94 15 00 00 	lea    0x1594(%rip),%rdi        # 2f10 <array.3417+0xb0>
    197c:	e8 1f f6 ff ff       	callq  fa0 <puts@plt>
    1981:	bf 08 00 00 00       	mov    $0x8,%edi
    1986:	e8 25 f7 ff ff       	callq  10b0 <exit@plt>
    198b:	48 8d 54 24 40       	lea    0x40(%rsp),%rdx
    1990:	48 8d 35 6b 17 00 00 	lea    0x176b(%rip),%rsi        # 3102 <array.3417+0x2a2>
    1997:	bf 01 00 00 00       	mov    $0x1,%edi
    199c:	b8 00 00 00 00       	mov    $0x0,%eax
    19a1:	e8 da f6 ff ff       	callq  1080 <__printf_chk@plt>
    19a6:	bf 08 00 00 00       	mov    $0x8,%edi
    19ab:	e8 00 f7 ff ff       	callq  10b0 <exit@plt>
    19b0:	e8 0b f6 ff ff       	callq  fc0 <__stack_chk_fail@plt>

00000000000019b5 <initialize_bomb_solve>:
    19b5:	f3 c3                	repz retq 

00000000000019b7 <blank_line>:
    19b7:	55                   	push   %rbp
    19b8:	53                   	push   %rbx
    19b9:	48 83 ec 08          	sub    $0x8,%rsp
    19bd:	48 89 fd             	mov    %rdi,%rbp
    19c0:	0f b6 5d 00          	movzbl 0x0(%rbp),%ebx
    19c4:	84 db                	test   %bl,%bl
    19c6:	74 1e                	je     19e6 <blank_line+0x2f>
    19c8:	e8 23 f7 ff ff       	callq  10f0 <__ctype_b_loc@plt>
    19cd:	48 8b 00             	mov    (%rax),%rax
    19d0:	48 83 c5 01          	add    $0x1,%rbp
    19d4:	48 0f be db          	movsbq %bl,%rbx
    19d8:	f6 44 58 01 20       	testb  $0x20,0x1(%rax,%rbx,2)
    19dd:	75 e1                	jne    19c0 <blank_line+0x9>
    19df:	b8 00 00 00 00       	mov    $0x0,%eax
    19e4:	eb 05                	jmp    19eb <blank_line+0x34>
    19e6:	b8 01 00 00 00       	mov    $0x1,%eax
    19eb:	48 83 c4 08          	add    $0x8,%rsp
    19ef:	5b                   	pop    %rbx
    19f0:	5d                   	pop    %rbp
    19f1:	c3                   	retq   

00000000000019f2 <skip>:
    19f2:	53                   	push   %rbx
    19f3:	48 63 05 32 3b 20 00 	movslq 0x203b32(%rip),%rax        # 20552c <num_input_strings>
    19fa:	48 8d 04 80          	lea    (%rax,%rax,4),%rax
    19fe:	48 c1 e0 04          	shl    $0x4,%rax
    1a02:	48 89 c7             	mov    %rax,%rdi
    1a05:	48 8d 05 34 3b 20 00 	lea    0x203b34(%rip),%rax        # 205540 <input_strings>
    1a0c:	48 01 c7             	add    %rax,%rdi
    1a0f:	48 8b 15 1a 3b 20 00 	mov    0x203b1a(%rip),%rdx        # 205530 <infile>
    1a16:	be 50 00 00 00       	mov    $0x50,%esi
    1a1b:	e8 e0 f5 ff ff       	callq  1000 <fgets@plt>
    1a20:	48 89 c3             	mov    %rax,%rbx
    1a23:	48 85 c0             	test   %rax,%rax
    1a26:	74 0c                	je     1a34 <skip+0x42>
    1a28:	48 89 c7             	mov    %rax,%rdi
    1a2b:	e8 87 ff ff ff       	callq  19b7 <blank_line>
    1a30:	85 c0                	test   %eax,%eax
    1a32:	75 bf                	jne    19f3 <skip+0x1>
    1a34:	48 89 d8             	mov    %rbx,%rax
    1a37:	5b                   	pop    %rbx
    1a38:	c3                   	retq   

0000000000001a39 <send_msg>:
    1a39:	55                   	push   %rbp
    1a3a:	53                   	push   %rbx
    1a3b:	48 81 ec 18 40 00 00 	sub    $0x4018,%rsp
    1a42:	41 89 f8             	mov    %edi,%r8d
    1a45:	48 89 f3             	mov    %rsi,%rbx
    1a48:	64 48 8b 04 25 28 00 	mov    %fs:0x28,%rax
    1a4f:	00 00 
    1a51:	48 89 84 24 08 40 00 	mov    %rax,0x4008(%rsp)
    1a58:	00 
    1a59:	31 c0                	xor    %eax,%eax
    1a5b:	8b 35 cb 3a 20 00    	mov    0x203acb(%rip),%esi        # 20552c <num_input_strings>
    1a61:	8d 46 ff             	lea    -0x1(%rsi),%eax
    1a64:	48 98                	cltq   
    1a66:	48 8d 14 80          	lea    (%rax,%rax,4),%rdx
    1a6a:	48 89 d0             	mov    %rdx,%rax
    1a6d:	48 c1 e0 04          	shl    $0x4,%rax
    1a71:	48 8d 15 c8 3a 20 00 	lea    0x203ac8(%rip),%rdx        # 205540 <input_strings>
    1a78:	48 01 c2             	add    %rax,%rdx
    1a7b:	48 c7 c1 ff ff ff ff 	mov    $0xffffffffffffffff,%rcx
    1a82:	b8 00 00 00 00       	mov    $0x0,%eax
    1a87:	48 89 d7             	mov    %rdx,%rdi
    1a8a:	f2 ae                	repnz scas %es:(%rdi),%al
    1a8c:	48 89 c8             	mov    %rcx,%rax
    1a8f:	48 f7 d0             	not    %rax
    1a92:	48 83 c0 63          	add    $0x63,%rax
    1a96:	48 3d 00 20 00 00    	cmp    $0x2000,%rax
    1a9c:	0f 87 9c 00 00 00    	ja     1b3e <send_msg+0x105>
    1aa2:	45 85 c0             	test   %r8d,%r8d
    1aa5:	0f 84 b3 00 00 00    	je     1b5e <send_msg+0x125>
    1aab:	48 8d 05 6a 16 00 00 	lea    0x166a(%rip),%rax        # 311c <array.3417+0x2bc>
    1ab2:	48 89 e5             	mov    %rsp,%rbp
    1ab5:	48 83 ec 08          	sub    $0x8,%rsp
    1ab9:	52                   	push   %rdx
    1aba:	56                   	push   %rsi
    1abb:	50                   	push   %rax
    1abc:	4c 8d 0d 7d 2e 20 00 	lea    0x202e7d(%rip),%r9        # 204940 <authkey>
    1ac3:	44 8b 05 76 36 20 00 	mov    0x203676(%rip),%r8d        # 205140 <bomb_id>
    1aca:	48 8d 0d 5c 16 00 00 	lea    0x165c(%rip),%rcx        # 312d <array.3417+0x2cd>
    1ad1:	ba 00 20 00 00       	mov    $0x2000,%edx
    1ad6:	be 01 00 00 00       	mov    $0x1,%esi
    1adb:	48 89 ef             	mov    %rbp,%rdi
    1ade:	b8 00 00 00 00       	mov    $0x0,%eax
    1ae3:	e8 18 f6 ff ff       	callq  1100 <__sprintf_chk@plt>
    1ae8:	48 83 c4 20          	add    $0x20,%rsp
    1aec:	4c 8d 8c 24 00 20 00 	lea    0x2000(%rsp),%r9
    1af3:	00 
    1af4:	41 b8 00 00 00 00    	mov    $0x0,%r8d
    1afa:	48 89 e9             	mov    %rbp,%rcx
    1afd:	48 8d 15 3c 26 20 00 	lea    0x20263c(%rip),%rdx        # 204140 <lab>
    1b04:	48 8d 35 35 2a 20 00 	lea    0x202a35(%rip),%rsi        # 204540 <course>
    1b0b:	48 8d 3d 2e 32 20 00 	lea    0x20322e(%rip),%rdi        # 204d40 <userid>
    1b12:	e8 21 10 00 00       	callq  2b38 <driver_post>
    1b17:	c7 03 01 00 00 00    	movl   $0x1,(%rbx)
    1b1d:	85 c0                	test   %eax,%eax
    1b1f:	78 49                	js     1b6a <send_msg+0x131>
    1b21:	48 8b 84 24 08 40 00 	mov    0x4008(%rsp),%rax
    1b28:	00 
    1b29:	64 48 33 04 25 28 00 	xor    %fs:0x28,%rax
    1b30:	00 00 
    1b32:	75 4d                	jne    1b81 <send_msg+0x148>
    1b34:	48 81 c4 18 40 00 00 	add    $0x4018,%rsp
    1b3b:	5b                   	pop    %rbx
    1b3c:	5d                   	pop    %rbp
    1b3d:	c3                   	retq   
    1b3e:	48 8d 35 03 14 00 00 	lea    0x1403(%rip),%rsi        # 2f48 <array.3417+0xe8>
    1b45:	bf 01 00 00 00       	mov    $0x1,%edi
    1b4a:	b8 00 00 00 00       	mov    $0x0,%eax
    1b4f:	e8 2c f5 ff ff       	callq  1080 <__printf_chk@plt>
    1b54:	bf 08 00 00 00       	mov    $0x8,%edi
    1b59:	e8 52 f5 ff ff       	callq  10b0 <exit@plt>
    1b5e:	48 8d 05 bf 15 00 00 	lea    0x15bf(%rip),%rax        # 3124 <array.3417+0x2c4>
    1b65:	e9 48 ff ff ff       	jmpq   1ab2 <send_msg+0x79>
    1b6a:	48 8d bc 24 00 20 00 	lea    0x2000(%rsp),%rdi
    1b71:	00 
    1b72:	e8 29 f4 ff ff       	callq  fa0 <puts@plt>
    1b77:	bf 00 00 00 00       	mov    $0x0,%edi
    1b7c:	e8 2f f5 ff ff       	callq  10b0 <exit@plt>
    1b81:	e8 3a f4 ff ff       	callq  fc0 <__stack_chk_fail@plt>

0000000000001b86 <explode_bomb>:
    1b86:	48 83 ec 18          	sub    $0x18,%rsp
    1b8a:	64 48 8b 04 25 28 00 	mov    %fs:0x28,%rax
    1b91:	00 00 
    1b93:	48 89 44 24 08       	mov    %rax,0x8(%rsp)
    1b98:	31 c0                	xor    %eax,%eax
    1b9a:	48 8d 3d 9b 15 00 00 	lea    0x159b(%rip),%rdi        # 313c <array.3417+0x2dc>
    1ba1:	e8 fa f3 ff ff       	callq  fa0 <puts@plt>
    1ba6:	48 8d 3d 98 15 00 00 	lea    0x1598(%rip),%rdi        # 3145 <array.3417+0x2e5>
    1bad:	e8 ee f3 ff ff       	callq  fa0 <puts@plt>
    1bb2:	c7 44 24 04 00 00 00 	movl   $0x0,0x4(%rsp)
    1bb9:	00 
    1bba:	48 8d 74 24 04       	lea    0x4(%rsp),%rsi
    1bbf:	bf 00 00 00 00       	mov    $0x0,%edi
    1bc4:	e8 70 fe ff ff       	callq  1a39 <send_msg>
    1bc9:	83 7c 24 04 01       	cmpl   $0x1,0x4(%rsp)
    1bce:	74 20                	je     1bf0 <explode_bomb+0x6a>
    1bd0:	48 8d 35 99 13 00 00 	lea    0x1399(%rip),%rsi        # 2f70 <array.3417+0x110>
    1bd7:	bf 01 00 00 00       	mov    $0x1,%edi
    1bdc:	b8 00 00 00 00       	mov    $0x0,%eax
    1be1:	e8 9a f4 ff ff       	callq  1080 <__printf_chk@plt>
    1be6:	bf 08 00 00 00       	mov    $0x8,%edi
    1beb:	e8 c0 f4 ff ff       	callq  10b0 <exit@plt>
    1bf0:	48 8d 3d c1 13 00 00 	lea    0x13c1(%rip),%rdi        # 2fb8 <array.3417+0x158>
    1bf7:	e8 a4 f3 ff ff       	callq  fa0 <puts@plt>
    1bfc:	bf 08 00 00 00       	mov    $0x8,%edi
    1c01:	e8 aa f4 ff ff       	callq  10b0 <exit@plt>

0000000000001c06 <read_six_numbers>:
    1c06:	48 83 ec 08          	sub    $0x8,%rsp
    1c0a:	48 89 f2             	mov    %rsi,%rdx
    1c0d:	48 8d 76 14          	lea    0x14(%rsi),%rsi
    1c11:	48 8d 42 10          	lea    0x10(%rdx),%rax
    1c15:	48 8d 4a 04          	lea    0x4(%rdx),%rcx
    1c19:	56                   	push   %rsi
    1c1a:	50                   	push   %rax
    1c1b:	4c 8d 4a 0c          	lea    0xc(%rdx),%r9
    1c1f:	4c 8d 42 08          	lea    0x8(%rdx),%r8
    1c23:	48 8d 35 32 15 00 00 	lea    0x1532(%rip),%rsi        # 315c <array.3417+0x2fc>
    1c2a:	b8 00 00 00 00       	mov    $0x0,%eax
    1c2f:	e8 3c f4 ff ff       	callq  1070 <__isoc99_sscanf@plt>
    1c34:	48 83 c4 10          	add    $0x10,%rsp
    1c38:	83 f8 05             	cmp    $0x5,%eax
    1c3b:	7e 05                	jle    1c42 <read_six_numbers+0x3c>
    1c3d:	48 83 c4 08          	add    $0x8,%rsp
    1c41:	c3                   	retq   
    1c42:	e8 3f ff ff ff       	callq  1b86 <explode_bomb>

0000000000001c47 <read_line>:
    1c47:	48 83 ec 08          	sub    $0x8,%rsp
    1c4b:	b8 00 00 00 00       	mov    $0x0,%eax
    1c50:	e8 9d fd ff ff       	callq  19f2 <skip>
    1c55:	48 85 c0             	test   %rax,%rax
    1c58:	74 72                	je     1ccc <read_line+0x85>
    1c5a:	8b 35 cc 38 20 00    	mov    0x2038cc(%rip),%esi        # 20552c <num_input_strings>
    1c60:	48 63 c6             	movslq %esi,%rax
    1c63:	48 8d 04 80          	lea    (%rax,%rax,4),%rax
    1c67:	48 c1 e0 04          	shl    $0x4,%rax
    1c6b:	48 89 c2             	mov    %rax,%rdx
    1c6e:	48 8d 05 cb 38 20 00 	lea    0x2038cb(%rip),%rax        # 205540 <input_strings>
    1c75:	48 01 c2             	add    %rax,%rdx
    1c78:	48 c7 c1 ff ff ff ff 	mov    $0xffffffffffffffff,%rcx
    1c7f:	b8 00 00 00 00       	mov    $0x0,%eax
    1c84:	48 89 d7             	mov    %rdx,%rdi
    1c87:	f2 ae                	repnz scas %es:(%rdi),%al
    1c89:	48 f7 d1             	not    %rcx
    1c8c:	48 83 e9 01          	sub    $0x1,%rcx
    1c90:	83 f9 4e             	cmp    $0x4e,%ecx
    1c93:	0f 8f ab 00 00 00    	jg     1d44 <read_line+0xfd>
    1c99:	83 e9 01             	sub    $0x1,%ecx
    1c9c:	48 63 c9             	movslq %ecx,%rcx
    1c9f:	48 63 c6             	movslq %esi,%rax
    1ca2:	48 8d 04 80          	lea    (%rax,%rax,4),%rax
    1ca6:	48 c1 e0 04          	shl    $0x4,%rax
    1caa:	48 89 c7             	mov    %rax,%rdi
    1cad:	48 8d 05 8c 38 20 00 	lea    0x20388c(%rip),%rax        # 205540 <input_strings>
    1cb4:	48 01 f8             	add    %rdi,%rax
    1cb7:	c6 04 08 00          	movb   $0x0,(%rax,%rcx,1)
    1cbb:	83 c6 01             	add    $0x1,%esi
    1cbe:	89 35 68 38 20 00    	mov    %esi,0x203868(%rip)        # 20552c <num_input_strings>
    1cc4:	48 89 d0             	mov    %rdx,%rax
    1cc7:	48 83 c4 08          	add    $0x8,%rsp
    1ccb:	c3                   	retq   
    1ccc:	48 8b 05 3d 38 20 00 	mov    0x20383d(%rip),%rax        # 205510 <stdin@@GLIBC_2.2.5>
    1cd3:	48 39 05 56 38 20 00 	cmp    %rax,0x203856(%rip)        # 205530 <infile>
    1cda:	74 1b                	je     1cf7 <read_line+0xb0>
    1cdc:	48 8d 3d a9 14 00 00 	lea    0x14a9(%rip),%rdi        # 318c <array.3417+0x32c>
    1ce3:	e8 78 f2 ff ff       	callq  f60 <getenv@plt>
    1ce8:	48 85 c0             	test   %rax,%rax
    1ceb:	74 20                	je     1d0d <read_line+0xc6>
    1ced:	bf 00 00 00 00       	mov    $0x0,%edi
    1cf2:	e8 b9 f3 ff ff       	callq  10b0 <exit@plt>
    1cf7:	48 8d 3d 70 14 00 00 	lea    0x1470(%rip),%rdi        # 316e <array.3417+0x30e>
    1cfe:	e8 9d f2 ff ff       	callq  fa0 <puts@plt>
    1d03:	bf 08 00 00 00       	mov    $0x8,%edi
    1d08:	e8 a3 f3 ff ff       	callq  10b0 <exit@plt>
    1d0d:	48 8b 05 fc 37 20 00 	mov    0x2037fc(%rip),%rax        # 205510 <stdin@@GLIBC_2.2.5>
    1d14:	48 89 05 15 38 20 00 	mov    %rax,0x203815(%rip)        # 205530 <infile>
    1d1b:	b8 00 00 00 00       	mov    $0x0,%eax
    1d20:	e8 cd fc ff ff       	callq  19f2 <skip>
    1d25:	48 85 c0             	test   %rax,%rax
    1d28:	0f 85 2c ff ff ff    	jne    1c5a <read_line+0x13>
    1d2e:	48 8d 3d 39 14 00 00 	lea    0x1439(%rip),%rdi        # 316e <array.3417+0x30e>
    1d35:	e8 66 f2 ff ff       	callq  fa0 <puts@plt>
    1d3a:	bf 00 00 00 00       	mov    $0x0,%edi
    1d3f:	e8 6c f3 ff ff       	callq  10b0 <exit@plt>
    1d44:	48 8d 3d 4c 14 00 00 	lea    0x144c(%rip),%rdi        # 3197 <array.3417+0x337>
    1d4b:	e8 50 f2 ff ff       	callq  fa0 <puts@plt>
    1d50:	8b 05 d6 37 20 00    	mov    0x2037d6(%rip),%eax        # 20552c <num_input_strings>
    1d56:	8d 50 01             	lea    0x1(%rax),%edx
    1d59:	89 15 cd 37 20 00    	mov    %edx,0x2037cd(%rip)        # 20552c <num_input_strings>
    1d5f:	48 98                	cltq   
    1d61:	48 6b c0 50          	imul   $0x50,%rax,%rax
    1d65:	48 8d 15 d4 37 20 00 	lea    0x2037d4(%rip),%rdx        # 205540 <input_strings>
    1d6c:	48 be 2a 2a 2a 74 72 	movabs $0x636e7572742a2a2a,%rsi
    1d73:	75 6e 63 
    1d76:	48 bf 61 74 65 64 2a 	movabs $0x2a2a2a64657461,%rdi
    1d7d:	2a 2a 00 
    1d80:	48 89 34 02          	mov    %rsi,(%rdx,%rax,1)
    1d84:	48 89 7c 02 08       	mov    %rdi,0x8(%rdx,%rax,1)
    1d89:	e8 f8 fd ff ff       	callq  1b86 <explode_bomb>

0000000000001d8e <phase_defused>:
    1d8e:	48 83 ec 78          	sub    $0x78,%rsp
    1d92:	64 48 8b 04 25 28 00 	mov    %fs:0x28,%rax
    1d99:	00 00 
    1d9b:	48 89 44 24 68       	mov    %rax,0x68(%rsp)
    1da0:	31 c0                	xor    %eax,%eax
    1da2:	c7 44 24 0c 00 00 00 	movl   $0x0,0xc(%rsp)
    1da9:	00 
    1daa:	48 8d 74 24 0c       	lea    0xc(%rsp),%rsi
    1daf:	bf 01 00 00 00       	mov    $0x1,%edi
    1db4:	e8 80 fc ff ff       	callq  1a39 <send_msg>
    1db9:	83 3d 6c 37 20 00 06 	cmpl   $0x6,0x20376c(%rip)        # 20552c <num_input_strings>
    1dc0:	74 19                	je     1ddb <phase_defused+0x4d>
    1dc2:	48 8b 44 24 68       	mov    0x68(%rsp),%rax
    1dc7:	64 48 33 04 25 28 00 	xor    %fs:0x28,%rax
    1dce:	00 00 
    1dd0:	0f 85 84 00 00 00    	jne    1e5a <phase_defused+0xcc>
    1dd6:	48 83 c4 78          	add    $0x78,%rsp
    1dda:	c3                   	retq   
    1ddb:	48 8d 4c 24 08       	lea    0x8(%rsp),%rcx
    1de0:	48 8d 54 24 04       	lea    0x4(%rsp),%rdx
    1de5:	4c 8d 44 24 10       	lea    0x10(%rsp),%r8
    1dea:	48 8d 35 c1 13 00 00 	lea    0x13c1(%rip),%rsi        # 31b2 <array.3417+0x352>
    1df1:	48 8d 3d 38 38 20 00 	lea    0x203838(%rip),%rdi        # 205630 <input_strings+0xf0>
    1df8:	b8 00 00 00 00       	mov    $0x0,%eax
    1dfd:	e8 6e f2 ff ff       	callq  1070 <__isoc99_sscanf@plt>
    1e02:	83 f8 03             	cmp    $0x3,%eax
    1e05:	74 1a                	je     1e21 <phase_defused+0x93>
    1e07:	48 8d 3d 62 12 00 00 	lea    0x1262(%rip),%rdi        # 3070 <array.3417+0x210>
    1e0e:	e8 8d f1 ff ff       	callq  fa0 <puts@plt>
    1e13:	48 8d 3d 86 12 00 00 	lea    0x1286(%rip),%rdi        # 30a0 <array.3417+0x240>
    1e1a:	e8 81 f1 ff ff       	callq  fa0 <puts@plt>
    1e1f:	eb a1                	jmp    1dc2 <phase_defused+0x34>
    1e21:	48 8d 7c 24 10       	lea    0x10(%rsp),%rdi
    1e26:	48 8d 35 b3 11 00 00 	lea    0x11b3(%rip),%rsi        # 2fe0 <array.3417+0x180>
    1e2d:	e8 37 fa ff ff       	callq  1869 <strings_not_equal>
    1e32:	85 c0                	test   %eax,%eax
    1e34:	75 d1                	jne    1e07 <phase_defused+0x79>
    1e36:	48 8d 3d d3 11 00 00 	lea    0x11d3(%rip),%rdi        # 3010 <array.3417+0x1b0>
    1e3d:	e8 5e f1 ff ff       	callq  fa0 <puts@plt>
    1e42:	48 8d 3d ef 11 00 00 	lea    0x11ef(%rip),%rdi        # 3038 <array.3417+0x1d8>
    1e49:	e8 52 f1 ff ff       	callq  fa0 <puts@plt>
    1e4e:	b8 00 00 00 00       	mov    $0x0,%eax
    1e53:	e8 22 f9 ff ff       	callq  177a <secret_phase>
    1e58:	eb ad                	jmp    1e07 <phase_defused+0x79>
    1e5a:	e8 61 f1 ff ff       	callq  fc0 <__stack_chk_fail@plt>

0000000000001e5f <rio_readinitb>:
    1e5f:	89 37                	mov    %esi,(%rdi)
    1e61:	c7 47 04 00 00 00 00 	movl   $0x0,0x4(%rdi)
    1e68:	48 8d 47 10          	lea    0x10(%rdi),%rax
    1e6c:	48 89 47 08          	mov    %rax,0x8(%rdi)
    1e70:	c3                   	retq   

0000000000001e71 <sigalrm_handler>:
    1e71:	48 83 ec 08          	sub    $0x8,%rsp
    1e75:	b9 00 00 00 00       	mov    $0x0,%ecx
    1e7a:	48 8d 15 97 13 00 00 	lea    0x1397(%rip),%rdx        # 3218 <array.3417+0x3b8>
    1e81:	be 01 00 00 00       	mov    $0x1,%esi
    1e86:	48 8b 3d 93 36 20 00 	mov    0x203693(%rip),%rdi        # 205520 <stderr@@GLIBC_2.2.5>
    1e8d:	b8 00 00 00 00       	mov    $0x0,%eax
    1e92:	e8 39 f2 ff ff       	callq  10d0 <__fprintf_chk@plt>
    1e97:	bf 01 00 00 00       	mov    $0x1,%edi
    1e9c:	e8 0f f2 ff ff       	callq  10b0 <exit@plt>

0000000000001ea1 <rio_writen>:
    1ea1:	41 55                	push   %r13
    1ea3:	41 54                	push   %r12
    1ea5:	55                   	push   %rbp
    1ea6:	53                   	push   %rbx
    1ea7:	48 83 ec 08          	sub    $0x8,%rsp
    1eab:	41 89 fc             	mov    %edi,%r12d
    1eae:	48 89 f5             	mov    %rsi,%rbp
    1eb1:	49 89 d5             	mov    %rdx,%r13
    1eb4:	48 89 d3             	mov    %rdx,%rbx
    1eb7:	eb 06                	jmp    1ebf <rio_writen+0x1e>
    1eb9:	48 29 c3             	sub    %rax,%rbx
    1ebc:	48 01 c5             	add    %rax,%rbp
    1ebf:	48 85 db             	test   %rbx,%rbx
    1ec2:	74 24                	je     1ee8 <rio_writen+0x47>
    1ec4:	48 89 da             	mov    %rbx,%rdx
    1ec7:	48 89 ee             	mov    %rbp,%rsi
    1eca:	44 89 e7             	mov    %r12d,%edi
    1ecd:	e8 de f0 ff ff       	callq  fb0 <write@plt>
    1ed2:	48 85 c0             	test   %rax,%rax
    1ed5:	7f e2                	jg     1eb9 <rio_writen+0x18>
    1ed7:	e8 a4 f0 ff ff       	callq  f80 <__errno_location@plt>
    1edc:	83 38 04             	cmpl   $0x4,(%rax)
    1edf:	75 15                	jne    1ef6 <rio_writen+0x55>
    1ee1:	b8 00 00 00 00       	mov    $0x0,%eax
    1ee6:	eb d1                	jmp    1eb9 <rio_writen+0x18>
    1ee8:	4c 89 e8             	mov    %r13,%rax
    1eeb:	48 83 c4 08          	add    $0x8,%rsp
    1eef:	5b                   	pop    %rbx
    1ef0:	5d                   	pop    %rbp
    1ef1:	41 5c                	pop    %r12
    1ef3:	41 5d                	pop    %r13
    1ef5:	c3                   	retq   
    1ef6:	48 c7 c0 ff ff ff ff 	mov    $0xffffffffffffffff,%rax
    1efd:	eb ec                	jmp    1eeb <rio_writen+0x4a>

0000000000001eff <rio_read>:
    1eff:	41 55                	push   %r13
    1f01:	41 54                	push   %r12
    1f03:	55                   	push   %rbp
    1f04:	53                   	push   %rbx
    1f05:	48 83 ec 08          	sub    $0x8,%rsp
    1f09:	48 89 fb             	mov    %rdi,%rbx
    1f0c:	49 89 f5             	mov    %rsi,%r13
    1f0f:	49 89 d4             	mov    %rdx,%r12
    1f12:	eb 0a                	jmp    1f1e <rio_read+0x1f>
    1f14:	e8 67 f0 ff ff       	callq  f80 <__errno_location@plt>
    1f19:	83 38 04             	cmpl   $0x4,(%rax)
    1f1c:	75 5c                	jne    1f7a <rio_read+0x7b>
    1f1e:	8b 6b 04             	mov    0x4(%rbx),%ebp
    1f21:	85 ed                	test   %ebp,%ebp
    1f23:	7f 24                	jg     1f49 <rio_read+0x4a>
    1f25:	48 8d 6b 10          	lea    0x10(%rbx),%rbp
    1f29:	8b 3b                	mov    (%rbx),%edi
    1f2b:	ba 00 20 00 00       	mov    $0x2000,%edx
    1f30:	48 89 ee             	mov    %rbp,%rsi
    1f33:	e8 b8 f0 ff ff       	callq  ff0 <read@plt>
    1f38:	89 43 04             	mov    %eax,0x4(%rbx)
    1f3b:	85 c0                	test   %eax,%eax
    1f3d:	78 d5                	js     1f14 <rio_read+0x15>
    1f3f:	85 c0                	test   %eax,%eax
    1f41:	74 40                	je     1f83 <rio_read+0x84>
    1f43:	48 89 6b 08          	mov    %rbp,0x8(%rbx)
    1f47:	eb d5                	jmp    1f1e <rio_read+0x1f>
    1f49:	89 e8                	mov    %ebp,%eax
    1f4b:	4c 39 e0             	cmp    %r12,%rax
    1f4e:	72 03                	jb     1f53 <rio_read+0x54>
    1f50:	44 89 e5             	mov    %r12d,%ebp
    1f53:	4c 63 e5             	movslq %ebp,%r12
    1f56:	48 8b 73 08          	mov    0x8(%rbx),%rsi
    1f5a:	4c 89 e2             	mov    %r12,%rdx
    1f5d:	4c 89 ef             	mov    %r13,%rdi
    1f60:	e8 eb f0 ff ff       	callq  1050 <memcpy@plt>
    1f65:	4c 01 63 08          	add    %r12,0x8(%rbx)
    1f69:	29 6b 04             	sub    %ebp,0x4(%rbx)
    1f6c:	4c 89 e0             	mov    %r12,%rax
    1f6f:	48 83 c4 08          	add    $0x8,%rsp
    1f73:	5b                   	pop    %rbx
    1f74:	5d                   	pop    %rbp
    1f75:	41 5c                	pop    %r12
    1f77:	41 5d                	pop    %r13
    1f79:	c3                   	retq   
    1f7a:	48 c7 c0 ff ff ff ff 	mov    $0xffffffffffffffff,%rax
    1f81:	eb ec                	jmp    1f6f <rio_read+0x70>
    1f83:	b8 00 00 00 00       	mov    $0x0,%eax
    1f88:	eb e5                	jmp    1f6f <rio_read+0x70>

0000000000001f8a <rio_readlineb>:
    1f8a:	41 55                	push   %r13
    1f8c:	41 54                	push   %r12
    1f8e:	55                   	push   %rbp
    1f8f:	53                   	push   %rbx
    1f90:	48 83 ec 18          	sub    $0x18,%rsp
    1f94:	49 89 fd             	mov    %rdi,%r13
    1f97:	48 89 f5             	mov    %rsi,%rbp
    1f9a:	49 89 d4             	mov    %rdx,%r12
    1f9d:	64 48 8b 04 25 28 00 	mov    %fs:0x28,%rax
    1fa4:	00 00 
    1fa6:	48 89 44 24 08       	mov    %rax,0x8(%rsp)
    1fab:	31 c0                	xor    %eax,%eax
    1fad:	bb 01 00 00 00       	mov    $0x1,%ebx
    1fb2:	4c 39 e3             	cmp    %r12,%rbx
    1fb5:	73 47                	jae    1ffe <rio_readlineb+0x74>
    1fb7:	48 8d 74 24 07       	lea    0x7(%rsp),%rsi
    1fbc:	ba 01 00 00 00       	mov    $0x1,%edx
    1fc1:	4c 89 ef             	mov    %r13,%rdi
    1fc4:	e8 36 ff ff ff       	callq  1eff <rio_read>
    1fc9:	83 f8 01             	cmp    $0x1,%eax
    1fcc:	75 1c                	jne    1fea <rio_readlineb+0x60>
    1fce:	48 8d 45 01          	lea    0x1(%rbp),%rax
    1fd2:	0f b6 54 24 07       	movzbl 0x7(%rsp),%edx
    1fd7:	88 55 00             	mov    %dl,0x0(%rbp)
    1fda:	80 7c 24 07 0a       	cmpb   $0xa,0x7(%rsp)
    1fdf:	74 1a                	je     1ffb <rio_readlineb+0x71>
    1fe1:	48 83 c3 01          	add    $0x1,%rbx
    1fe5:	48 89 c5             	mov    %rax,%rbp
    1fe8:	eb c8                	jmp    1fb2 <rio_readlineb+0x28>
    1fea:	85 c0                	test   %eax,%eax
    1fec:	75 32                	jne    2020 <rio_readlineb+0x96>
    1fee:	48 83 fb 01          	cmp    $0x1,%rbx
    1ff2:	75 0a                	jne    1ffe <rio_readlineb+0x74>
    1ff4:	b8 00 00 00 00       	mov    $0x0,%eax
    1ff9:	eb 0a                	jmp    2005 <rio_readlineb+0x7b>
    1ffb:	48 89 c5             	mov    %rax,%rbp
    1ffe:	c6 45 00 00          	movb   $0x0,0x0(%rbp)
    2002:	48 89 d8             	mov    %rbx,%rax
    2005:	48 8b 4c 24 08       	mov    0x8(%rsp),%rcx
    200a:	64 48 33 0c 25 28 00 	xor    %fs:0x28,%rcx
    2011:	00 00 
    2013:	75 14                	jne    2029 <rio_readlineb+0x9f>
    2015:	48 83 c4 18          	add    $0x18,%rsp
    2019:	5b                   	pop    %rbx
    201a:	5d                   	pop    %rbp
    201b:	41 5c                	pop    %r12
    201d:	41 5d                	pop    %r13
    201f:	c3                   	retq   
    2020:	48 c7 c0 ff ff ff ff 	mov    $0xffffffffffffffff,%rax
    2027:	eb dc                	jmp    2005 <rio_readlineb+0x7b>
    2029:	e8 92 ef ff ff       	callq  fc0 <__stack_chk_fail@plt>

000000000000202e <urlencode>:
    202e:	41 54                	push   %r12
    2030:	55                   	push   %rbp
    2031:	53                   	push   %rbx
    2032:	48 83 ec 10          	sub    $0x10,%rsp
    2036:	48 89 fb             	mov    %rdi,%rbx
    2039:	48 89 f5             	mov    %rsi,%rbp
    203c:	64 48 8b 04 25 28 00 	mov    %fs:0x28,%rax
    2043:	00 00 
    2045:	48 89 44 24 08       	mov    %rax,0x8(%rsp)
    204a:	31 c0                	xor    %eax,%eax
    204c:	48 c7 c1 ff ff ff ff 	mov    $0xffffffffffffffff,%rcx
    2053:	f2 ae                	repnz scas %es:(%rdi),%al
    2055:	48 89 ce             	mov    %rcx,%rsi
    2058:	48 f7 d6             	not    %rsi
    205b:	8d 46 ff             	lea    -0x1(%rsi),%eax
    205e:	eb 0f                	jmp    206f <urlencode+0x41>
    2060:	44 88 45 00          	mov    %r8b,0x0(%rbp)
    2064:	48 8d 6d 01          	lea    0x1(%rbp),%rbp
    2068:	48 83 c3 01          	add    $0x1,%rbx
    206c:	44 89 e0             	mov    %r12d,%eax
    206f:	44 8d 60 ff          	lea    -0x1(%rax),%r12d
    2073:	85 c0                	test   %eax,%eax
    2075:	0f 84 a8 00 00 00    	je     2123 <urlencode+0xf5>
    207b:	44 0f b6 03          	movzbl (%rbx),%r8d
    207f:	41 80 f8 2a          	cmp    $0x2a,%r8b
    2083:	0f 94 c2             	sete   %dl
    2086:	41 80 f8 2d          	cmp    $0x2d,%r8b
    208a:	0f 94 c0             	sete   %al
    208d:	08 c2                	or     %al,%dl
    208f:	75 cf                	jne    2060 <urlencode+0x32>
    2091:	41 80 f8 2e          	cmp    $0x2e,%r8b
    2095:	74 c9                	je     2060 <urlencode+0x32>
    2097:	41 80 f8 5f          	cmp    $0x5f,%r8b
    209b:	74 c3                	je     2060 <urlencode+0x32>
    209d:	41 8d 40 d0          	lea    -0x30(%r8),%eax
    20a1:	3c 09                	cmp    $0x9,%al
    20a3:	76 bb                	jbe    2060 <urlencode+0x32>
    20a5:	41 8d 40 bf          	lea    -0x41(%r8),%eax
    20a9:	3c 19                	cmp    $0x19,%al
    20ab:	76 b3                	jbe    2060 <urlencode+0x32>
    20ad:	41 8d 40 9f          	lea    -0x61(%r8),%eax
    20b1:	3c 19                	cmp    $0x19,%al
    20b3:	76 ab                	jbe    2060 <urlencode+0x32>
    20b5:	41 80 f8 20          	cmp    $0x20,%r8b
    20b9:	74 56                	je     2111 <urlencode+0xe3>
    20bb:	41 8d 40 e0          	lea    -0x20(%r8),%eax
    20bf:	3c 5f                	cmp    $0x5f,%al
    20c1:	0f 96 c2             	setbe  %dl
    20c4:	41 80 f8 09          	cmp    $0x9,%r8b
    20c8:	0f 94 c0             	sete   %al
    20cb:	08 c2                	or     %al,%dl
    20cd:	74 4f                	je     211e <urlencode+0xf0>
    20cf:	48 89 e7             	mov    %rsp,%rdi
    20d2:	45 0f b6 c0          	movzbl %r8b,%r8d
    20d6:	48 8d 0d f3 11 00 00 	lea    0x11f3(%rip),%rcx        # 32d0 <array.3417+0x470>
    20dd:	ba 08 00 00 00       	mov    $0x8,%edx
    20e2:	be 01 00 00 00       	mov    $0x1,%esi
    20e7:	b8 00 00 00 00       	mov    $0x0,%eax
    20ec:	e8 0f f0 ff ff       	callq  1100 <__sprintf_chk@plt>
    20f1:	0f b6 04 24          	movzbl (%rsp),%eax
    20f5:	88 45 00             	mov    %al,0x0(%rbp)
    20f8:	0f b6 44 24 01       	movzbl 0x1(%rsp),%eax
    20fd:	88 45 01             	mov    %al,0x1(%rbp)
    2100:	0f b6 44 24 02       	movzbl 0x2(%rsp),%eax
    2105:	88 45 02             	mov    %al,0x2(%rbp)
    2108:	48 8d 6d 03          	lea    0x3(%rbp),%rbp
    210c:	e9 57 ff ff ff       	jmpq   2068 <urlencode+0x3a>
    2111:	c6 45 00 2b          	movb   $0x2b,0x0(%rbp)
    2115:	48 8d 6d 01          	lea    0x1(%rbp),%rbp
    2119:	e9 4a ff ff ff       	jmpq   2068 <urlencode+0x3a>
    211e:	b8 ff ff ff ff       	mov    $0xffffffff,%eax
    2123:	48 8b 74 24 08       	mov    0x8(%rsp),%rsi
    2128:	64 48 33 34 25 28 00 	xor    %fs:0x28,%rsi
    212f:	00 00 
    2131:	75 09                	jne    213c <urlencode+0x10e>
    2133:	48 83 c4 10          	add    $0x10,%rsp
    2137:	5b                   	pop    %rbx
    2138:	5d                   	pop    %rbp
    2139:	41 5c                	pop    %r12
    213b:	c3                   	retq   
    213c:	e8 7f ee ff ff       	callq  fc0 <__stack_chk_fail@plt>

0000000000002141 <submitr>:
    2141:	41 57                	push   %r15
    2143:	41 56                	push   %r14
    2145:	41 55                	push   %r13
    2147:	41 54                	push   %r12
    2149:	55                   	push   %rbp
    214a:	53                   	push   %rbx
    214b:	48 81 ec 68 a0 00 00 	sub    $0xa068,%rsp
    2152:	49 89 fd             	mov    %rdi,%r13
    2155:	89 74 24 1c          	mov    %esi,0x1c(%rsp)
    2159:	48 89 54 24 08       	mov    %rdx,0x8(%rsp)
    215e:	49 89 ce             	mov    %rcx,%r14
    2161:	4c 89 44 24 10       	mov    %r8,0x10(%rsp)
    2166:	4d 89 cf             	mov    %r9,%r15
    2169:	48 8b ac 24 a0 a0 00 	mov    0xa0a0(%rsp),%rbp
    2170:	00 
    2171:	64 48 8b 04 25 28 00 	mov    %fs:0x28,%rax
    2178:	00 00 
    217a:	48 89 84 24 58 a0 00 	mov    %rax,0xa058(%rsp)
    2181:	00 
    2182:	31 c0                	xor    %eax,%eax
    2184:	c7 44 24 2c 00 00 00 	movl   $0x0,0x2c(%rsp)
    218b:	00 
    218c:	ba 00 00 00 00       	mov    $0x0,%edx
    2191:	be 01 00 00 00       	mov    $0x1,%esi
    2196:	bf 02 00 00 00       	mov    $0x2,%edi
    219b:	e8 70 ef ff ff       	callq  1110 <socket@plt>
    21a0:	85 c0                	test   %eax,%eax
    21a2:	0f 88 ae 02 00 00    	js     2456 <submitr+0x315>
    21a8:	89 c3                	mov    %eax,%ebx
    21aa:	4c 89 ef             	mov    %r13,%rdi
    21ad:	e8 6e ee ff ff       	callq  1020 <gethostbyname@plt>
    21b2:	48 85 c0             	test   %rax,%rax
    21b5:	0f 84 e7 02 00 00    	je     24a2 <submitr+0x361>
    21bb:	4c 8d 64 24 30       	lea    0x30(%rsp),%r12
    21c0:	48 c7 44 24 32 00 00 	movq   $0x0,0x32(%rsp)
    21c7:	00 00 
    21c9:	c7 44 24 3a 00 00 00 	movl   $0x0,0x3a(%rsp)
    21d0:	00 
    21d1:	66 c7 44 24 3e 00 00 	movw   $0x0,0x3e(%rsp)
    21d8:	66 c7 44 24 30 02 00 	movw   $0x2,0x30(%rsp)
    21df:	48 63 50 14          	movslq 0x14(%rax),%rdx
    21e3:	48 8b 40 18          	mov    0x18(%rax),%rax
    21e7:	48 8b 30             	mov    (%rax),%rsi
    21ea:	48 8d 7c 24 34       	lea    0x34(%rsp),%rdi
    21ef:	b9 0c 00 00 00       	mov    $0xc,%ecx
    21f4:	e8 37 ee ff ff       	callq  1030 <__memmove_chk@plt>
    21f9:	0f b7 44 24 1c       	movzwl 0x1c(%rsp),%eax
    21fe:	66 c1 c8 08          	ror    $0x8,%ax
    2202:	66 89 44 24 32       	mov    %ax,0x32(%rsp)
    2207:	ba 10 00 00 00       	mov    $0x10,%edx
    220c:	4c 89 e6             	mov    %r12,%rsi
    220f:	89 df                	mov    %ebx,%edi
    2211:	e8 aa ee ff ff       	callq  10c0 <connect@plt>
    2216:	85 c0                	test   %eax,%eax
    2218:	0f 88 fa 02 00 00    	js     2518 <submitr+0x3d7>
    221e:	48 c7 c6 ff ff ff ff 	mov    $0xffffffffffffffff,%rsi
    2225:	b8 00 00 00 00       	mov    $0x0,%eax
    222a:	48 89 f1             	mov    %rsi,%rcx
    222d:	4c 89 ff             	mov    %r15,%rdi
    2230:	f2 ae                	repnz scas %es:(%rdi),%al
    2232:	48 89 ca             	mov    %rcx,%rdx
    2235:	48 f7 d2             	not    %rdx
    2238:	48 89 f1             	mov    %rsi,%rcx
    223b:	48 8b 7c 24 08       	mov    0x8(%rsp),%rdi
    2240:	f2 ae                	repnz scas %es:(%rdi),%al
    2242:	48 f7 d1             	not    %rcx
    2245:	49 89 c8             	mov    %rcx,%r8
    2248:	48 89 f1             	mov    %rsi,%rcx
    224b:	4c 89 f7             	mov    %r14,%rdi
    224e:	f2 ae                	repnz scas %es:(%rdi),%al
    2250:	48 f7 d1             	not    %rcx
    2253:	4d 8d 44 08 fe       	lea    -0x2(%r8,%rcx,1),%r8
    2258:	48 89 f1             	mov    %rsi,%rcx
    225b:	48 8b 7c 24 10       	mov    0x10(%rsp),%rdi
    2260:	f2 ae                	repnz scas %es:(%rdi),%al
    2262:	48 89 c8             	mov    %rcx,%rax
    2265:	48 f7 d0             	not    %rax
    2268:	49 8d 4c 00 ff       	lea    -0x1(%r8,%rax,1),%rcx
    226d:	48 8d 44 52 fd       	lea    -0x3(%rdx,%rdx,2),%rax
    2272:	48 8d 84 01 80 00 00 	lea    0x80(%rcx,%rax,1),%rax
    2279:	00 
    227a:	48 3d 00 20 00 00    	cmp    $0x2000,%rax
    2280:	0f 87 fa 02 00 00    	ja     2580 <submitr+0x43f>
    2286:	48 8d b4 24 50 40 00 	lea    0x4050(%rsp),%rsi
    228d:	00 
    228e:	b9 00 04 00 00       	mov    $0x400,%ecx
    2293:	b8 00 00 00 00       	mov    $0x0,%eax
    2298:	48 89 f7             	mov    %rsi,%rdi
    229b:	f3 48 ab             	rep stos %rax,%es:(%rdi)
    229e:	4c 89 ff             	mov    %r15,%rdi
    22a1:	e8 88 fd ff ff       	callq  202e <urlencode>
    22a6:	85 c0                	test   %eax,%eax
    22a8:	0f 88 45 03 00 00    	js     25f3 <submitr+0x4b2>
    22ae:	4c 8d a4 24 50 20 00 	lea    0x2050(%rsp),%r12
    22b5:	00 
    22b6:	48 83 ec 08          	sub    $0x8,%rsp
    22ba:	41 55                	push   %r13
    22bc:	48 8d 84 24 60 40 00 	lea    0x4060(%rsp),%rax
    22c3:	00 
    22c4:	50                   	push   %rax
    22c5:	41 56                	push   %r14
    22c7:	4c 8b 4c 24 30       	mov    0x30(%rsp),%r9
    22cc:	4c 8b 44 24 28       	mov    0x28(%rsp),%r8
    22d1:	48 8d 0d 68 0f 00 00 	lea    0xf68(%rip),%rcx        # 3240 <array.3417+0x3e0>
    22d8:	ba 00 20 00 00       	mov    $0x2000,%edx
    22dd:	be 01 00 00 00       	mov    $0x1,%esi
    22e2:	4c 89 e7             	mov    %r12,%rdi
    22e5:	b8 00 00 00 00       	mov    $0x0,%eax
    22ea:	e8 11 ee ff ff       	callq  1100 <__sprintf_chk@plt>
    22ef:	48 c7 c1 ff ff ff ff 	mov    $0xffffffffffffffff,%rcx
    22f6:	b8 00 00 00 00       	mov    $0x0,%eax
    22fb:	4c 89 e7             	mov    %r12,%rdi
    22fe:	f2 ae                	repnz scas %es:(%rdi),%al
    2300:	48 89 ca             	mov    %rcx,%rdx
    2303:	48 f7 d2             	not    %rdx
    2306:	48 8d 52 ff          	lea    -0x1(%rdx),%rdx
    230a:	48 83 c4 20          	add    $0x20,%rsp
    230e:	4c 89 e6             	mov    %r12,%rsi
    2311:	89 df                	mov    %ebx,%edi
    2313:	e8 89 fb ff ff       	callq  1ea1 <rio_writen>
    2318:	48 85 c0             	test   %rax,%rax
    231b:	0f 88 5d 03 00 00    	js     267e <submitr+0x53d>
    2321:	4c 8d 64 24 40       	lea    0x40(%rsp),%r12
    2326:	89 de                	mov    %ebx,%esi
    2328:	4c 89 e7             	mov    %r12,%rdi
    232b:	e8 2f fb ff ff       	callq  1e5f <rio_readinitb>
    2330:	48 8d b4 24 50 20 00 	lea    0x2050(%rsp),%rsi
    2337:	00 
    2338:	ba 00 20 00 00       	mov    $0x2000,%edx
    233d:	4c 89 e7             	mov    %r12,%rdi
    2340:	e8 45 fc ff ff       	callq  1f8a <rio_readlineb>
    2345:	48 85 c0             	test   %rax,%rax
    2348:	0f 8e 9c 03 00 00    	jle    26ea <submitr+0x5a9>
    234e:	48 8d 4c 24 2c       	lea    0x2c(%rsp),%rcx
    2353:	48 8d 94 24 50 60 00 	lea    0x6050(%rsp),%rdx
    235a:	00 
    235b:	48 8d bc 24 50 20 00 	lea    0x2050(%rsp),%rdi
    2362:	00 
    2363:	4c 8d 84 24 50 80 00 	lea    0x8050(%rsp),%r8
    236a:	00 
    236b:	48 8d 35 65 0f 00 00 	lea    0xf65(%rip),%rsi        # 32d7 <array.3417+0x477>
    2372:	b8 00 00 00 00       	mov    $0x0,%eax
    2377:	e8 f4 ec ff ff       	callq  1070 <__isoc99_sscanf@plt>
    237c:	48 8d b4 24 50 20 00 	lea    0x2050(%rsp),%rsi
    2383:	00 
    2384:	b9 03 00 00 00       	mov    $0x3,%ecx
    2389:	48 8d 3d 5e 0f 00 00 	lea    0xf5e(%rip),%rdi        # 32ee <array.3417+0x48e>
    2390:	f3 a6                	repz cmpsb %es:(%rdi),%ds:(%rsi)
    2392:	0f 97 c0             	seta   %al
    2395:	1c 00                	sbb    $0x0,%al
    2397:	84 c0                	test   %al,%al
    2399:	0f 84 cb 03 00 00    	je     276a <submitr+0x629>
    239f:	48 8d b4 24 50 20 00 	lea    0x2050(%rsp),%rsi
    23a6:	00 
    23a7:	48 8d 7c 24 40       	lea    0x40(%rsp),%rdi
    23ac:	ba 00 20 00 00       	mov    $0x2000,%edx
    23b1:	e8 d4 fb ff ff       	callq  1f8a <rio_readlineb>
    23b6:	48 85 c0             	test   %rax,%rax
    23b9:	7f c1                	jg     237c <submitr+0x23b>
    23bb:	48 b8 45 72 72 6f 72 	movabs $0x43203a726f727245,%rax
    23c2:	3a 20 43 
    23c5:	48 ba 6c 69 65 6e 74 	movabs $0x6e7520746e65696c,%rdx
    23cc:	20 75 6e 
    23cf:	48 89 45 00          	mov    %rax,0x0(%rbp)
    23d3:	48 89 55 08          	mov    %rdx,0x8(%rbp)
    23d7:	48 b8 61 62 6c 65 20 	movabs $0x206f7420656c6261,%rax
    23de:	74 6f 20 
    23e1:	48 ba 72 65 61 64 20 	movabs $0x6165682064616572,%rdx
    23e8:	68 65 61 
    23eb:	48 89 45 10          	mov    %rax,0x10(%rbp)
    23ef:	48 89 55 18          	mov    %rdx,0x18(%rbp)
    23f3:	48 b8 64 65 72 73 20 	movabs $0x6f72662073726564,%rax
    23fa:	66 72 6f 
    23fd:	48 ba 6d 20 41 75 74 	movabs $0x616c6f747541206d,%rdx
    2404:	6f 6c 61 
    2407:	48 89 45 20          	mov    %rax,0x20(%rbp)
    240b:	48 89 55 28          	mov    %rdx,0x28(%rbp)
    240f:	48 b8 62 20 73 65 72 	movabs $0x7265767265732062,%rax
    2416:	76 65 72 
    2419:	48 89 45 30          	mov    %rax,0x30(%rbp)
    241d:	c6 45 38 00          	movb   $0x0,0x38(%rbp)
    2421:	89 df                	mov    %ebx,%edi
    2423:	e8 b8 eb ff ff       	callq  fe0 <close@plt>
    2428:	b8 ff ff ff ff       	mov    $0xffffffff,%eax
    242d:	48 8b 9c 24 58 a0 00 	mov    0xa058(%rsp),%rbx
    2434:	00 
    2435:	64 48 33 1c 25 28 00 	xor    %fs:0x28,%rbx
    243c:	00 00 
    243e:	0f 85 96 04 00 00    	jne    28da <submitr+0x799>
    2444:	48 81 c4 68 a0 00 00 	add    $0xa068,%rsp
    244b:	5b                   	pop    %rbx
    244c:	5d                   	pop    %rbp
    244d:	41 5c                	pop    %r12
    244f:	41 5d                	pop    %r13
    2451:	41 5e                	pop    %r14
    2453:	41 5f                	pop    %r15
    2455:	c3                   	retq   
    2456:	48 b8 45 72 72 6f 72 	movabs $0x43203a726f727245,%rax
    245d:	3a 20 43 
    2460:	48 ba 6c 69 65 6e 74 	movabs $0x6e7520746e65696c,%rdx
    2467:	20 75 6e 
    246a:	48 89 45 00          	mov    %rax,0x0(%rbp)
    246e:	48 89 55 08          	mov    %rdx,0x8(%rbp)
    2472:	48 b8 61 62 6c 65 20 	movabs $0x206f7420656c6261,%rax
    2479:	74 6f 20 
    247c:	48 ba 63 72 65 61 74 	movabs $0x7320657461657263,%rdx
    2483:	65 20 73 
    2486:	48 89 45 10          	mov    %rax,0x10(%rbp)
    248a:	48 89 55 18          	mov    %rdx,0x18(%rbp)
    248e:	c7 45 20 6f 63 6b 65 	movl   $0x656b636f,0x20(%rbp)
    2495:	66 c7 45 24 74 00    	movw   $0x74,0x24(%rbp)
    249b:	b8 ff ff ff ff       	mov    $0xffffffff,%eax
    24a0:	eb 8b                	jmp    242d <submitr+0x2ec>
    24a2:	48 b8 45 72 72 6f 72 	movabs $0x44203a726f727245,%rax
    24a9:	3a 20 44 
    24ac:	48 ba 4e 53 20 69 73 	movabs $0x6e7520736920534e,%rdx
    24b3:	20 75 6e 
    24b6:	48 89 45 00          	mov    %rax,0x0(%rbp)
    24ba:	48 89 55 08          	mov    %rdx,0x8(%rbp)
    24be:	48 b8 61 62 6c 65 20 	movabs $0x206f7420656c6261,%rax
    24c5:	74 6f 20 
    24c8:	48 ba 72 65 73 6f 6c 	movabs $0x2065766c6f736572,%rdx
    24cf:	76 65 20 
    24d2:	48 89 45 10          	mov    %rax,0x10(%rbp)
    24d6:	48 89 55 18          	mov    %rdx,0x18(%rbp)
    24da:	48 b8 41 75 74 6f 6c 	movabs $0x2062616c6f747541,%rax
    24e1:	61 62 20 
    24e4:	48 ba 73 65 72 76 65 	movabs $0x6120726576726573,%rdx
    24eb:	72 20 61 
    24ee:	48 89 45 20          	mov    %rax,0x20(%rbp)
    24f2:	48 89 55 28          	mov    %rdx,0x28(%rbp)
    24f6:	c7 45 30 64 64 72 65 	movl   $0x65726464,0x30(%rbp)
    24fd:	66 c7 45 34 73 73    	movw   $0x7373,0x34(%rbp)
    2503:	c6 45 36 00          	movb   $0x0,0x36(%rbp)
    2507:	89 df                	mov    %ebx,%edi
    2509:	e8 d2 ea ff ff       	callq  fe0 <close@plt>
    250e:	b8 ff ff ff ff       	mov    $0xffffffff,%eax
    2513:	e9 15 ff ff ff       	jmpq   242d <submitr+0x2ec>
    2518:	48 b8 45 72 72 6f 72 	movabs $0x55203a726f727245,%rax
    251f:	3a 20 55 
    2522:	48 ba 6e 61 62 6c 65 	movabs $0x6f7420656c62616e,%rdx
    2529:	20 74 6f 
    252c:	48 89 45 00          	mov    %rax,0x0(%rbp)
    2530:	48 89 55 08          	mov    %rdx,0x8(%rbp)
    2534:	48 b8 20 63 6f 6e 6e 	movabs $0x7463656e6e6f6320,%rax
    253b:	65 63 74 
    253e:	48 ba 20 74 6f 20 74 	movabs $0x20656874206f7420,%rdx
    2545:	68 65 20 
    2548:	48 89 45 10          	mov    %rax,0x10(%rbp)
    254c:	48 89 55 18          	mov    %rdx,0x18(%rbp)
    2550:	48 b8 41 75 74 6f 6c 	movabs $0x2062616c6f747541,%rax
    2557:	61 62 20 
    255a:	48 89 45 20          	mov    %rax,0x20(%rbp)
    255e:	c7 45 28 73 65 72 76 	movl   $0x76726573,0x28(%rbp)
    2565:	66 c7 45 2c 65 72    	movw   $0x7265,0x2c(%rbp)
    256b:	c6 45 2e 00          	movb   $0x0,0x2e(%rbp)
    256f:	89 df                	mov    %ebx,%edi
    2571:	e8 6a ea ff ff       	callq  fe0 <close@plt>
    2576:	b8 ff ff ff ff       	mov    $0xffffffff,%eax
    257b:	e9 ad fe ff ff       	jmpq   242d <submitr+0x2ec>
    2580:	48 b8 45 72 72 6f 72 	movabs $0x52203a726f727245,%rax
    2587:	3a 20 52 
    258a:	48 ba 65 73 75 6c 74 	movabs $0x747320746c757365,%rdx
    2591:	20 73 74 
    2594:	48 89 45 00          	mov    %rax,0x0(%rbp)
    2598:	48 89 55 08          	mov    %rdx,0x8(%rbp)
    259c:	48 b8 72 69 6e 67 20 	movabs $0x6f6f7420676e6972,%rax
    25a3:	74 6f 6f 
    25a6:	48 ba 20 6c 61 72 67 	movabs $0x202e656772616c20,%rdx
    25ad:	65 2e 20 
    25b0:	48 89 45 10          	mov    %rax,0x10(%rbp)
    25b4:	48 89 55 18          	mov    %rdx,0x18(%rbp)
    25b8:	48 b8 49 6e 63 72 65 	movabs $0x6573616572636e49,%rax
    25bf:	61 73 65 
    25c2:	48 ba 20 53 55 42 4d 	movabs $0x5254494d42555320,%rdx
    25c9:	49 54 52 
    25cc:	48 89 45 20          	mov    %rax,0x20(%rbp)
    25d0:	48 89 55 28          	mov    %rdx,0x28(%rbp)
    25d4:	48 b8 5f 4d 41 58 42 	movabs $0x46554258414d5f,%rax
    25db:	55 46 00 
    25de:	48 89 45 30          	mov    %rax,0x30(%rbp)
    25e2:	89 df                	mov    %ebx,%edi
    25e4:	e8 f7 e9 ff ff       	callq  fe0 <close@plt>
    25e9:	b8 ff ff ff ff       	mov    $0xffffffff,%eax
    25ee:	e9 3a fe ff ff       	jmpq   242d <submitr+0x2ec>
    25f3:	48 b8 45 72 72 6f 72 	movabs $0x52203a726f727245,%rax
    25fa:	3a 20 52 
    25fd:	48 ba 65 73 75 6c 74 	movabs $0x747320746c757365,%rdx
    2604:	20 73 74 
    2607:	48 89 45 00          	mov    %rax,0x0(%rbp)
    260b:	48 89 55 08          	mov    %rdx,0x8(%rbp)
    260f:	48 b8 72 69 6e 67 20 	movabs $0x6e6f6320676e6972,%rax
    2616:	63 6f 6e 
    2619:	48 ba 74 61 69 6e 73 	movabs $0x6e6120736e696174,%rdx
    2620:	20 61 6e 
    2623:	48 89 45 10          	mov    %rax,0x10(%rbp)
    2627:	48 89 55 18          	mov    %rdx,0x18(%rbp)
    262b:	48 b8 20 69 6c 6c 65 	movabs $0x6c6167656c6c6920,%rax
    2632:	67 61 6c 
    2635:	48 ba 20 6f 72 20 75 	movabs $0x72706e7520726f20,%rdx
    263c:	6e 70 72 
    263f:	48 89 45 20          	mov    %rax,0x20(%rbp)
    2643:	48 89 55 28          	mov    %rdx,0x28(%rbp)
    2647:	48 b8 69 6e 74 61 62 	movabs $0x20656c6261746e69,%rax
    264e:	6c 65 20 
    2651:	48 ba 63 68 61 72 61 	movabs $0x6574636172616863,%rdx
    2658:	63 74 65 
    265b:	48 89 45 30          	mov    %rax,0x30(%rbp)
    265f:	48 89 55 38          	mov    %rdx,0x38(%rbp)
    2663:	66 c7 45 40 72 2e    	movw   $0x2e72,0x40(%rbp)
    2669:	c6 45 42 00          	movb   $0x0,0x42(%rbp)
    266d:	89 df                	mov    %ebx,%edi
    266f:	e8 6c e9 ff ff       	callq  fe0 <close@plt>
    2674:	b8 ff ff ff ff       	mov    $0xffffffff,%eax
    2679:	e9 af fd ff ff       	jmpq   242d <submitr+0x2ec>
    267e:	48 b8 45 72 72 6f 72 	movabs $0x43203a726f727245,%rax
    2685:	3a 20 43 
    2688:	48 ba 6c 69 65 6e 74 	movabs $0x6e7520746e65696c,%rdx
    268f:	20 75 6e 
    2692:	48 89 45 00          	mov    %rax,0x0(%rbp)
    2696:	48 89 55 08          	mov    %rdx,0x8(%rbp)
    269a:	48 b8 61 62 6c 65 20 	movabs $0x206f7420656c6261,%rax
    26a1:	74 6f 20 
    26a4:	48 ba 77 72 69 74 65 	movabs $0x6f74206574697277,%rdx
    26ab:	20 74 6f 
    26ae:	48 89 45 10          	mov    %rax,0x10(%rbp)
    26b2:	48 89 55 18          	mov    %rdx,0x18(%rbp)
    26b6:	48 b8 20 74 68 65 20 	movabs $0x7475412065687420,%rax
    26bd:	41 75 74 
    26c0:	48 ba 6f 6c 61 62 20 	movabs $0x7265732062616c6f,%rdx
    26c7:	73 65 72 
    26ca:	48 89 45 20          	mov    %rax,0x20(%rbp)
    26ce:	48 89 55 28          	mov    %rdx,0x28(%rbp)
    26d2:	c7 45 30 76 65 72 00 	movl   $0x726576,0x30(%rbp)
    26d9:	89 df                	mov    %ebx,%edi
    26db:	e8 00 e9 ff ff       	callq  fe0 <close@plt>
    26e0:	b8 ff ff ff ff       	mov    $0xffffffff,%eax
    26e5:	e9 43 fd ff ff       	jmpq   242d <submitr+0x2ec>
    26ea:	48 b8 45 72 72 6f 72 	movabs $0x43203a726f727245,%rax
    26f1:	3a 20 43 
    26f4:	48 ba 6c 69 65 6e 74 	movabs $0x6e7520746e65696c,%rdx
    26fb:	20 75 6e 
    26fe:	48 89 45 00          	mov    %rax,0x0(%rbp)
    2702:	48 89 55 08          	mov    %rdx,0x8(%rbp)
    2706:	48 b8 61 62 6c 65 20 	movabs $0x206f7420656c6261,%rax
    270d:	74 6f 20 
    2710:	48 ba 72 65 61 64 20 	movabs $0x7269662064616572,%rdx
    2717:	66 69 72 
    271a:	48 89 45 10          	mov    %rax,0x10(%rbp)
    271e:	48 89 55 18          	mov    %rdx,0x18(%rbp)
    2722:	48 b8 73 74 20 68 65 	movabs $0x6564616568207473,%rax
    2729:	61 64 65 
    272c:	48 ba 72 20 66 72 6f 	movabs $0x41206d6f72662072,%rdx
    2733:	6d 20 41 
    2736:	48 89 45 20          	mov    %rax,0x20(%rbp)
    273a:	48 89 55 28          	mov    %rdx,0x28(%rbp)
    273e:	48 b8 75 74 6f 6c 61 	movabs $0x732062616c6f7475,%rax
    2745:	62 20 73 
    2748:	48 89 45 30          	mov    %rax,0x30(%rbp)
    274c:	c7 45 38 65 72 76 65 	movl   $0x65767265,0x38(%rbp)
    2753:	66 c7 45 3c 72 00    	movw   $0x72,0x3c(%rbp)
    2759:	89 df                	mov    %ebx,%edi
    275b:	e8 80 e8 ff ff       	callq  fe0 <close@plt>
    2760:	b8 ff ff ff ff       	mov    $0xffffffff,%eax
    2765:	e9 c3 fc ff ff       	jmpq   242d <submitr+0x2ec>
    276a:	48 8d b4 24 50 20 00 	lea    0x2050(%rsp),%rsi
    2771:	00 
    2772:	48 8d 7c 24 40       	lea    0x40(%rsp),%rdi
    2777:	ba 00 20 00 00       	mov    $0x2000,%edx
    277c:	e8 09 f8 ff ff       	callq  1f8a <rio_readlineb>
    2781:	48 85 c0             	test   %rax,%rax
    2784:	0f 8e 96 00 00 00    	jle    2820 <submitr+0x6df>
    278a:	44 8b 44 24 2c       	mov    0x2c(%rsp),%r8d
    278f:	41 81 f8 c8 00 00 00 	cmp    $0xc8,%r8d
    2796:	0f 85 05 01 00 00    	jne    28a1 <submitr+0x760>
    279c:	48 8d b4 24 50 20 00 	lea    0x2050(%rsp),%rsi
    27a3:	00 
    27a4:	48 89 ef             	mov    %rbp,%rdi
    27a7:	e8 e4 e7 ff ff       	callq  f90 <strcpy@plt>
    27ac:	89 df                	mov    %ebx,%edi
    27ae:	e8 2d e8 ff ff       	callq  fe0 <close@plt>
    27b3:	b9 04 00 00 00       	mov    $0x4,%ecx
    27b8:	48 8d 3d 29 0b 00 00 	lea    0xb29(%rip),%rdi        # 32e8 <array.3417+0x488>
    27bf:	48 89 ee             	mov    %rbp,%rsi
    27c2:	f3 a6                	repz cmpsb %es:(%rdi),%ds:(%rsi)
    27c4:	0f 97 c0             	seta   %al
    27c7:	1c 00                	sbb    $0x0,%al
    27c9:	0f be c0             	movsbl %al,%eax
    27cc:	85 c0                	test   %eax,%eax
    27ce:	0f 84 59 fc ff ff    	je     242d <submitr+0x2ec>
    27d4:	b9 05 00 00 00       	mov    $0x5,%ecx
    27d9:	48 8d 3d 0c 0b 00 00 	lea    0xb0c(%rip),%rdi        # 32ec <array.3417+0x48c>
    27e0:	48 89 ee             	mov    %rbp,%rsi
    27e3:	f3 a6                	repz cmpsb %es:(%rdi),%ds:(%rsi)
    27e5:	0f 97 c0             	seta   %al
    27e8:	1c 00                	sbb    $0x0,%al
    27ea:	0f be c0             	movsbl %al,%eax
    27ed:	85 c0                	test   %eax,%eax
    27ef:	0f 84 38 fc ff ff    	je     242d <submitr+0x2ec>
    27f5:	b9 03 00 00 00       	mov    $0x3,%ecx
    27fa:	48 8d 3d f0 0a 00 00 	lea    0xaf0(%rip),%rdi        # 32f1 <array.3417+0x491>
    2801:	48 89 ee             	mov    %rbp,%rsi
    2804:	f3 a6                	repz cmpsb %es:(%rdi),%ds:(%rsi)
    2806:	0f 97 c0             	seta   %al
    2809:	1c 00                	sbb    $0x0,%al
    280b:	0f be c0             	movsbl %al,%eax
    280e:	85 c0                	test   %eax,%eax
    2810:	0f 84 17 fc ff ff    	je     242d <submitr+0x2ec>
    2816:	b8 ff ff ff ff       	mov    $0xffffffff,%eax
    281b:	e9 0d fc ff ff       	jmpq   242d <submitr+0x2ec>
    2820:	48 b8 45 72 72 6f 72 	movabs $0x43203a726f727245,%rax
    2827:	3a 20 43 
    282a:	48 ba 6c 69 65 6e 74 	movabs $0x6e7520746e65696c,%rdx
    2831:	20 75 6e 
    2834:	48 89 45 00          	mov    %rax,0x0(%rbp)
    2838:	48 89 55 08          	mov    %rdx,0x8(%rbp)
    283c:	48 b8 61 62 6c 65 20 	movabs $0x206f7420656c6261,%rax
    2843:	74 6f 20 
    2846:	48 ba 72 65 61 64 20 	movabs $0x6174732064616572,%rdx
    284d:	73 74 61 
    2850:	48 89 45 10          	mov    %rax,0x10(%rbp)
    2854:	48 89 55 18          	mov    %rdx,0x18(%rbp)
    2858:	48 b8 74 75 73 20 6d 	movabs $0x7373656d20737574,%rax
    285f:	65 73 73 
    2862:	48 ba 61 67 65 20 66 	movabs $0x6d6f726620656761,%rdx
    2869:	72 6f 6d 
    286c:	48 89 45 20          	mov    %rax,0x20(%rbp)
    2870:	48 89 55 28          	mov    %rdx,0x28(%rbp)
    2874:	48 b8 20 41 75 74 6f 	movabs $0x62616c6f74754120,%rax
    287b:	6c 61 62 
    287e:	48 ba 20 73 65 72 76 	movabs $0x72657672657320,%rdx
    2885:	65 72 00 
    2888:	48 89 45 30          	mov    %rax,0x30(%rbp)
    288c:	48 89 55 38          	mov    %rdx,0x38(%rbp)
    2890:	89 df                	mov    %ebx,%edi
    2892:	e8 49 e7 ff ff       	callq  fe0 <close@plt>
    2897:	b8 ff ff ff ff       	mov    $0xffffffff,%eax
    289c:	e9 8c fb ff ff       	jmpq   242d <submitr+0x2ec>
    28a1:	4c 8d 8c 24 50 80 00 	lea    0x8050(%rsp),%r9
    28a8:	00 
    28a9:	48 8d 0d f0 09 00 00 	lea    0x9f0(%rip),%rcx        # 32a0 <array.3417+0x440>
    28b0:	48 c7 c2 ff ff ff ff 	mov    $0xffffffffffffffff,%rdx
    28b7:	be 01 00 00 00       	mov    $0x1,%esi
    28bc:	48 89 ef             	mov    %rbp,%rdi
    28bf:	b8 00 00 00 00       	mov    $0x0,%eax
    28c4:	e8 37 e8 ff ff       	callq  1100 <__sprintf_chk@plt>
    28c9:	89 df                	mov    %ebx,%edi
    28cb:	e8 10 e7 ff ff       	callq  fe0 <close@plt>
    28d0:	b8 ff ff ff ff       	mov    $0xffffffff,%eax
    28d5:	e9 53 fb ff ff       	jmpq   242d <submitr+0x2ec>
    28da:	e8 e1 e6 ff ff       	callq  fc0 <__stack_chk_fail@plt>

00000000000028df <init_timeout>:
    28df:	85 ff                	test   %edi,%edi
    28e1:	74 28                	je     290b <init_timeout+0x2c>
    28e3:	53                   	push   %rbx
    28e4:	89 fb                	mov    %edi,%ebx
    28e6:	85 ff                	test   %edi,%edi
    28e8:	78 1a                	js     2904 <init_timeout+0x25>
    28ea:	48 8d 35 80 f5 ff ff 	lea    -0xa80(%rip),%rsi        # 1e71 <sigalrm_handler>
    28f1:	bf 0e 00 00 00       	mov    $0xe,%edi
    28f6:	e8 15 e7 ff ff       	callq  1010 <signal@plt>
    28fb:	89 df                	mov    %ebx,%edi
    28fd:	e8 ce e6 ff ff       	callq  fd0 <alarm@plt>
    2902:	5b                   	pop    %rbx
    2903:	c3                   	retq   
    2904:	bb 00 00 00 00       	mov    $0x0,%ebx
    2909:	eb df                	jmp    28ea <init_timeout+0xb>
    290b:	f3 c3                	repz retq 

000000000000290d <init_driver>:
    290d:	41 54                	push   %r12
    290f:	55                   	push   %rbp
    2910:	53                   	push   %rbx
    2911:	48 83 ec 20          	sub    $0x20,%rsp
    2915:	49 89 fc             	mov    %rdi,%r12
    2918:	64 48 8b 04 25 28 00 	mov    %fs:0x28,%rax
    291f:	00 00 
    2921:	48 89 44 24 18       	mov    %rax,0x18(%rsp)
    2926:	31 c0                	xor    %eax,%eax
    2928:	be 01 00 00 00       	mov    $0x1,%esi
    292d:	bf 0d 00 00 00       	mov    $0xd,%edi
    2932:	e8 d9 e6 ff ff       	callq  1010 <signal@plt>
    2937:	be 01 00 00 00       	mov    $0x1,%esi
    293c:	bf 1d 00 00 00       	mov    $0x1d,%edi
    2941:	e8 ca e6 ff ff       	callq  1010 <signal@plt>
    2946:	be 01 00 00 00       	mov    $0x1,%esi
    294b:	bf 1d 00 00 00       	mov    $0x1d,%edi
    2950:	e8 bb e6 ff ff       	callq  1010 <signal@plt>
    2955:	ba 00 00 00 00       	mov    $0x0,%edx
    295a:	be 01 00 00 00       	mov    $0x1,%esi
    295f:	bf 02 00 00 00       	mov    $0x2,%edi
    2964:	e8 a7 e7 ff ff       	callq  1110 <socket@plt>
    2969:	85 c0                	test   %eax,%eax
    296b:	0f 88 a3 00 00 00    	js     2a14 <init_driver+0x107>
    2971:	89 c3                	mov    %eax,%ebx
    2973:	48 8d 3d 7a 09 00 00 	lea    0x97a(%rip),%rdi        # 32f4 <array.3417+0x494>
    297a:	e8 a1 e6 ff ff       	callq  1020 <gethostbyname@plt>
    297f:	48 85 c0             	test   %rax,%rax
    2982:	0f 84 df 00 00 00    	je     2a67 <init_driver+0x15a>
    2988:	48 89 e5             	mov    %rsp,%rbp
    298b:	48 c7 44 24 02 00 00 	movq   $0x0,0x2(%rsp)
    2992:	00 00 
    2994:	c7 45 0a 00 00 00 00 	movl   $0x0,0xa(%rbp)
    299b:	66 c7 45 0e 00 00    	movw   $0x0,0xe(%rbp)
    29a1:	66 c7 04 24 02 00    	movw   $0x2,(%rsp)
    29a7:	48 63 50 14          	movslq 0x14(%rax),%rdx
    29ab:	48 8b 40 18          	mov    0x18(%rax),%rax
    29af:	48 8b 30             	mov    (%rax),%rsi
    29b2:	48 8d 7d 04          	lea    0x4(%rbp),%rdi
    29b6:	b9 0c 00 00 00       	mov    $0xc,%ecx
    29bb:	e8 70 e6 ff ff       	callq  1030 <__memmove_chk@plt>
    29c0:	66 c7 44 24 02 0b b8 	movw   $0xb80b,0x2(%rsp)
    29c7:	ba 10 00 00 00       	mov    $0x10,%edx
    29cc:	48 89 ee             	mov    %rbp,%rsi
    29cf:	89 df                	mov    %ebx,%edi
    29d1:	e8 ea e6 ff ff       	callq  10c0 <connect@plt>
    29d6:	85 c0                	test   %eax,%eax
    29d8:	0f 88 fb 00 00 00    	js     2ad9 <init_driver+0x1cc>
    29de:	89 df                	mov    %ebx,%edi
    29e0:	e8 fb e5 ff ff       	callq  fe0 <close@plt>
    29e5:	66 41 c7 04 24 4f 4b 	movw   $0x4b4f,(%r12)
    29ec:	41 c6 44 24 02 00    	movb   $0x0,0x2(%r12)
    29f2:	b8 00 00 00 00       	mov    $0x0,%eax
    29f7:	48 8b 4c 24 18       	mov    0x18(%rsp),%rcx
    29fc:	64 48 33 0c 25 28 00 	xor    %fs:0x28,%rcx
    2a03:	00 00 
    2a05:	0f 85 28 01 00 00    	jne    2b33 <init_driver+0x226>
    2a0b:	48 83 c4 20          	add    $0x20,%rsp
    2a0f:	5b                   	pop    %rbx
    2a10:	5d                   	pop    %rbp
    2a11:	41 5c                	pop    %r12
    2a13:	c3                   	retq   
    2a14:	48 b8 45 72 72 6f 72 	movabs $0x43203a726f727245,%rax
    2a1b:	3a 20 43 
    2a1e:	48 ba 6c 69 65 6e 74 	movabs $0x6e7520746e65696c,%rdx
    2a25:	20 75 6e 
    2a28:	49 89 04 24          	mov    %rax,(%r12)
    2a2c:	49 89 54 24 08       	mov    %rdx,0x8(%r12)
    2a31:	48 b8 61 62 6c 65 20 	movabs $0x206f7420656c6261,%rax
    2a38:	74 6f 20 
    2a3b:	48 ba 63 72 65 61 74 	movabs $0x7320657461657263,%rdx
    2a42:	65 20 73 
    2a45:	49 89 44 24 10       	mov    %rax,0x10(%r12)
    2a4a:	49 89 54 24 18       	mov    %rdx,0x18(%r12)
    2a4f:	41 c7 44 24 20 6f 63 	movl   $0x656b636f,0x20(%r12)
    2a56:	6b 65 
    2a58:	66 41 c7 44 24 24 74 	movw   $0x74,0x24(%r12)
    2a5f:	00 
    2a60:	b8 ff ff ff ff       	mov    $0xffffffff,%eax
    2a65:	eb 90                	jmp    29f7 <init_driver+0xea>
    2a67:	48 b8 45 72 72 6f 72 	movabs $0x44203a726f727245,%rax
    2a6e:	3a 20 44 
    2a71:	48 ba 4e 53 20 69 73 	movabs $0x6e7520736920534e,%rdx
    2a78:	20 75 6e 
    2a7b:	49 89 04 24          	mov    %rax,(%r12)
    2a7f:	49 89 54 24 08       	mov    %rdx,0x8(%r12)
    2a84:	48 b8 61 62 6c 65 20 	movabs $0x206f7420656c6261,%rax
    2a8b:	74 6f 20 
    2a8e:	48 ba 72 65 73 6f 6c 	movabs $0x2065766c6f736572,%rdx
    2a95:	76 65 20 
    2a98:	49 89 44 24 10       	mov    %rax,0x10(%r12)
    2a9d:	49 89 54 24 18       	mov    %rdx,0x18(%r12)
    2aa2:	48 b8 73 65 72 76 65 	movabs $0x6120726576726573,%rax
    2aa9:	72 20 61 
    2aac:	49 89 44 24 20       	mov    %rax,0x20(%r12)
    2ab1:	41 c7 44 24 28 64 64 	movl   $0x65726464,0x28(%r12)
    2ab8:	72 65 
    2aba:	66 41 c7 44 24 2c 73 	movw   $0x7373,0x2c(%r12)
    2ac1:	73 
    2ac2:	41 c6 44 24 2e 00    	movb   $0x0,0x2e(%r12)
    2ac8:	89 df                	mov    %ebx,%edi
    2aca:	e8 11 e5 ff ff       	callq  fe0 <close@plt>
    2acf:	b8 ff ff ff ff       	mov    $0xffffffff,%eax
    2ad4:	e9 1e ff ff ff       	jmpq   29f7 <init_driver+0xea>
    2ad9:	48 b8 45 72 72 6f 72 	movabs $0x55203a726f727245,%rax
    2ae0:	3a 20 55 
    2ae3:	48 ba 6e 61 62 6c 65 	movabs $0x6f7420656c62616e,%rdx
    2aea:	20 74 6f 
    2aed:	49 89 04 24          	mov    %rax,(%r12)
    2af1:	49 89 54 24 08       	mov    %rdx,0x8(%r12)
    2af6:	48 b8 20 63 6f 6e 6e 	movabs $0x7463656e6e6f6320,%rax
    2afd:	65 63 74 
    2b00:	48 ba 20 74 6f 20 73 	movabs $0x76726573206f7420,%rdx
    2b07:	65 72 76 
    2b0a:	49 89 44 24 10       	mov    %rax,0x10(%r12)
    2b0f:	49 89 54 24 18       	mov    %rdx,0x18(%r12)
    2b14:	66 41 c7 44 24 20 65 	movw   $0x7265,0x20(%r12)
    2b1b:	72 
    2b1c:	41 c6 44 24 22 00    	movb   $0x0,0x22(%r12)
    2b22:	89 df                	mov    %ebx,%edi
    2b24:	e8 b7 e4 ff ff       	callq  fe0 <close@plt>
    2b29:	b8 ff ff ff ff       	mov    $0xffffffff,%eax
    2b2e:	e9 c4 fe ff ff       	jmpq   29f7 <init_driver+0xea>
    2b33:	e8 88 e4 ff ff       	callq  fc0 <__stack_chk_fail@plt>

0000000000002b38 <driver_post>:
    2b38:	53                   	push   %rbx
    2b39:	4c 89 cb             	mov    %r9,%rbx
    2b3c:	45 85 c0             	test   %r8d,%r8d
    2b3f:	75 18                	jne    2b59 <driver_post+0x21>
    2b41:	48 85 ff             	test   %rdi,%rdi
    2b44:	74 05                	je     2b4b <driver_post+0x13>
    2b46:	80 3f 00             	cmpb   $0x0,(%rdi)
    2b49:	75 37                	jne    2b82 <driver_post+0x4a>
    2b4b:	66 c7 03 4f 4b       	movw   $0x4b4f,(%rbx)
    2b50:	c6 43 02 00          	movb   $0x0,0x2(%rbx)
    2b54:	44 89 c0             	mov    %r8d,%eax
    2b57:	5b                   	pop    %rbx
    2b58:	c3                   	retq   
    2b59:	48 89 ca             	mov    %rcx,%rdx
    2b5c:	48 8d 35 a1 07 00 00 	lea    0x7a1(%rip),%rsi        # 3304 <array.3417+0x4a4>
    2b63:	bf 01 00 00 00       	mov    $0x1,%edi
    2b68:	b8 00 00 00 00       	mov    $0x0,%eax
    2b6d:	e8 0e e5 ff ff       	callq  1080 <__printf_chk@plt>
    2b72:	66 c7 03 4f 4b       	movw   $0x4b4f,(%rbx)
    2b77:	c6 43 02 00          	movb   $0x0,0x2(%rbx)
    2b7b:	b8 00 00 00 00       	mov    $0x0,%eax
    2b80:	eb d5                	jmp    2b57 <driver_post+0x1f>
    2b82:	48 83 ec 08          	sub    $0x8,%rsp
    2b86:	41 51                	push   %r9
    2b88:	49 89 c9             	mov    %rcx,%r9
    2b8b:	49 89 d0             	mov    %rdx,%r8
    2b8e:	48 89 f9             	mov    %rdi,%rcx
    2b91:	48 89 f2             	mov    %rsi,%rdx
    2b94:	be b8 0b 00 00       	mov    $0xbb8,%esi
    2b99:	48 8d 3d 54 07 00 00 	lea    0x754(%rip),%rdi        # 32f4 <array.3417+0x494>
    2ba0:	e8 9c f5 ff ff       	callq  2141 <submitr>
    2ba5:	48 83 c4 10          	add    $0x10,%rsp
    2ba9:	eb ac                	jmp    2b57 <driver_post+0x1f>
    2bab:	0f 1f 44 00 00       	nopl   0x0(%rax,%rax,1)

0000000000002bb0 <__libc_csu_init>:
    2bb0:	41 57                	push   %r15
    2bb2:	41 56                	push   %r14
    2bb4:	49 89 d7             	mov    %rdx,%r15
    2bb7:	41 55                	push   %r13
    2bb9:	41 54                	push   %r12
    2bbb:	4c 8d 25 0e 11 20 00 	lea    0x20110e(%rip),%r12        # 203cd0 <__frame_dummy_init_array_entry>
    2bc2:	55                   	push   %rbp
    2bc3:	48 8d 2d 0e 11 20 00 	lea    0x20110e(%rip),%rbp        # 203cd8 <__init_array_end>
    2bca:	53                   	push   %rbx
    2bcb:	41 89 fd             	mov    %edi,%r13d
    2bce:	49 89 f6             	mov    %rsi,%r14
    2bd1:	4c 29 e5             	sub    %r12,%rbp
    2bd4:	48 83 ec 08          	sub    $0x8,%rsp
    2bd8:	48 c1 fd 03          	sar    $0x3,%rbp
    2bdc:	e8 4f e3 ff ff       	callq  f30 <_init>
    2be1:	48 85 ed             	test   %rbp,%rbp
    2be4:	74 20                	je     2c06 <__libc_csu_init+0x56>
    2be6:	31 db                	xor    %ebx,%ebx
    2be8:	0f 1f 84 00 00 00 00 	nopl   0x0(%rax,%rax,1)
    2bef:	00 
    2bf0:	4c 89 fa             	mov    %r15,%rdx
    2bf3:	4c 89 f6             	mov    %r14,%rsi
    2bf6:	44 89 ef             	mov    %r13d,%edi
    2bf9:	41 ff 14 dc          	callq  *(%r12,%rbx,8)
    2bfd:	48 83 c3 01          	add    $0x1,%rbx
    2c01:	48 39 dd             	cmp    %rbx,%rbp
    2c04:	75 ea                	jne    2bf0 <__libc_csu_init+0x40>
    2c06:	48 83 c4 08          	add    $0x8,%rsp
    2c0a:	5b                   	pop    %rbx
    2c0b:	5d                   	pop    %rbp
    2c0c:	41 5c                	pop    %r12
    2c0e:	41 5d                	pop    %r13
    2c10:	41 5e                	pop    %r14
    2c12:	41 5f                	pop    %r15
    2c14:	c3                   	retq   
    2c15:	90                   	nop
    2c16:	66 2e 0f 1f 84 00 00 	nopw   %cs:0x0(%rax,%rax,1)
    2c1d:	00 00 00 

0000000000002c20 <__libc_csu_fini>:
    2c20:	f3 c3                	repz retq 

Disassembly of section .fini:

0000000000002c24 <_fini>:
    2c24:	48 83 ec 08          	sub    $0x8,%rsp
    2c28:	48 83 c4 08          	add    $0x8,%rsp
    2c2c:	c3                   	retq